ARM GAS  C:\Users\ADMIN\AppData\Local\Temp\ccIuv89a.s 			page 1


   1              		.cpu cortex-m3
   2              		.arch armv7-m
   3              		.fpu softvfp
   4              		.eabi_attribute 20, 1
   5              		.eabi_attribute 21, 1
   6              		.eabi_attribute 23, 3
   7              		.eabi_attribute 24, 1
   8              		.eabi_attribute 25, 1
   9              		.eabi_attribute 26, 1
  10              		.eabi_attribute 30, 1
  11              		.eabi_attribute 34, 1
  12              		.eabi_attribute 18, 4
  13              		.file	"timer_driver.c"
  14              		.text
  15              	.Ltext0:
  16              		.cfi_sections	.debug_frame
  17              		.section	.text.prv_tim_idx,"ax",%progbits
  18              		.align	1
  19              		.syntax unified
  20              		.thumb
  21              		.thumb_func
  23              	prv_tim_idx:
  24              	.LVL0:
  25              	.LFB65:
  26              		.file 1 "Driver/timer_driver.c"
   1:Driver/timer_driver.c **** #include "timer_driver.h"
   2:Driver/timer_driver.c **** 
   3:Driver/timer_driver.c **** /* ================================================================
   4:Driver/timer_driver.c ****  *  INTERNAL STATE
   5:Driver/timer_driver.c ****  *
   6:Driver/timer_driver.c ****  *  cb_table      [4][4] : IRQ callback   — 4 timer x 4 channel
   7:Driver/timer_driver.c ****  *  dma_cb_table  [4][4] : DMA callback   — 4 timer x 4 channel
   8:Driver/timer_driver.c ****  *  mode_table    [4][4] : mode (uint8_t) — 4 timer x 4 channel
   9:Driver/timer_driver.c ****  *  dma_ch_table  [4][4] : DMA channel pointer tương ứng
  10:Driver/timer_driver.c ****  *
  11:Driver/timer_driver.c ****  *  Tổng RAM:
  12:Driver/timer_driver.c ****  *    cb_table     = 16 x 4 = 64 bytes
  13:Driver/timer_driver.c ****  *    dma_cb_table = 16 x 4 = 64 bytes
  14:Driver/timer_driver.c ****  *    mode_table   = 16 x 1 = 16 bytes
  15:Driver/timer_driver.c ****  *    dma_ch_table = 16 x 4 = 64 bytes
  16:Driver/timer_driver.c ****  *    ──────────────────────────────
  17:Driver/timer_driver.c ****  *    Tổng         = 208 bytes
  18:Driver/timer_driver.c ****  * ================================================================ */
  19:Driver/timer_driver.c **** static timer_cb_t cb_table[4][4];
  20:Driver/timer_driver.c **** static timer_dma_cb_t dma_cb_table[4][4];
  21:Driver/timer_driver.c **** static uint8_t mode_table[4][4];
  22:Driver/timer_driver.c **** static DMA_Channel_TypeDef *dma_ch_table[4][4];
  23:Driver/timer_driver.c **** 
  24:Driver/timer_driver.c **** /* ================================================================
  25:Driver/timer_driver.c ****  *  DMA MAP — STM32F103 Reference Manual Table 78
  26:Driver/timer_driver.c ****  *
  27:Driver/timer_driver.c ****  *  TIM2_CH3 -> DMA1_Ch1   TIM3_CH3 -> DMA1_Ch2
  28:Driver/timer_driver.c ****  *  TIM4_CH1 -> DMA1_Ch1   TIM3_CH4 -> DMA1_Ch3
  29:Driver/timer_driver.c ****  *  TIM1_CH1 -> DMA1_Ch2   TIM4_CH2 -> DMA1_Ch4
  30:Driver/timer_driver.c ****  *  TIM1_CH2 -> DMA1_Ch3   TIM2_CH1 -> DMA1_Ch5
  31:Driver/timer_driver.c ****  *  TIM4_CH3 -> DMA1_Ch5   TIM3_CH1 -> DMA1_Ch6
  32:Driver/timer_driver.c ****  *  TIM1_CH4 -> DMA1_Ch4   TIM2_CH2 -> DMA1_Ch7
ARM GAS  C:\Users\ADMIN\AppData\Local\Temp\ccIuv89a.s 			page 2


  33:Driver/timer_driver.c ****  *  TIM1_CH3 -> DMA1_Ch6   TIM3_CH2 -> DMA1_Ch7
  34:Driver/timer_driver.c ****  *  TIM2_CH4 -> DMA1_Ch7   TIM4_CH4 -> không có DMA
  35:Driver/timer_driver.c ****  *
  36:Driver/timer_driver.c ****  *  Lưu ý: một số channel DMA bị share (ví dụ CH7 share TIM2_CH2,
  37:Driver/timer_driver.c ****  *  TIM2_CH4, TIM3_CH2) — không dùng DMA đồng thời trên các timer
  38:Driver/timer_driver.c ****  *  share cùng DMA channel.
  39:Driver/timer_driver.c ****  * ================================================================ */
  40:Driver/timer_driver.c **** typedef struct
  41:Driver/timer_driver.c **** {
  42:Driver/timer_driver.c ****     DMA_Channel_TypeDef *ch;
  43:Driver/timer_driver.c ****     uint32_t flag_tc; /* Transfer Complete flag */
  44:Driver/timer_driver.c ****     uint32_t flag_gl; /* Global flag để clear   */
  45:Driver/timer_driver.c ****     IRQn_Type irqn;
  46:Driver/timer_driver.c **** } prv_dma_map_t;
  47:Driver/timer_driver.c **** 
  48:Driver/timer_driver.c **** static const prv_dma_map_t dma_map[4][4] = {
  49:Driver/timer_driver.c ****     /* TIM1 */
  50:Driver/timer_driver.c ****     {
  51:Driver/timer_driver.c ****         {DMA1_Channel2, DMA1_FLAG_TC2, DMA1_FLAG_GL2, DMA1_Channel2_IRQn}, /* CH1 */
  52:Driver/timer_driver.c ****         {DMA1_Channel3, DMA1_FLAG_TC3, DMA1_FLAG_GL3, DMA1_Channel3_IRQn}, /* CH2 */
  53:Driver/timer_driver.c ****         {DMA1_Channel6, DMA1_FLAG_TC6, DMA1_FLAG_GL6, DMA1_Channel6_IRQn}, /* CH3 */
  54:Driver/timer_driver.c ****         {DMA1_Channel4, DMA1_FLAG_TC4, DMA1_FLAG_GL4, DMA1_Channel4_IRQn}, /* CH4 */
  55:Driver/timer_driver.c ****     },
  56:Driver/timer_driver.c ****     /* TIM2 */
  57:Driver/timer_driver.c ****     {
  58:Driver/timer_driver.c ****         {DMA1_Channel5, DMA1_FLAG_TC5, DMA1_FLAG_GL5, DMA1_Channel5_IRQn}, /* CH1 */
  59:Driver/timer_driver.c ****         {DMA1_Channel7, DMA1_FLAG_TC7, DMA1_FLAG_GL7, DMA1_Channel7_IRQn}, /* CH2 */
  60:Driver/timer_driver.c ****         {DMA1_Channel1, DMA1_FLAG_TC1, DMA1_FLAG_GL1, DMA1_Channel1_IRQn}, /* CH3 */
  61:Driver/timer_driver.c ****         {DMA1_Channel7, DMA1_FLAG_TC7, DMA1_FLAG_GL7, DMA1_Channel7_IRQn}, /* CH4 */
  62:Driver/timer_driver.c ****     },
  63:Driver/timer_driver.c ****     /* TIM3 */
  64:Driver/timer_driver.c ****     {
  65:Driver/timer_driver.c ****         {DMA1_Channel6, DMA1_FLAG_TC6, DMA1_FLAG_GL6, DMA1_Channel6_IRQn}, /* CH1 */
  66:Driver/timer_driver.c ****         {DMA1_Channel7, DMA1_FLAG_TC7, DMA1_FLAG_GL7, DMA1_Channel7_IRQn}, /* CH2 */
  67:Driver/timer_driver.c ****         {DMA1_Channel2, DMA1_FLAG_TC2, DMA1_FLAG_GL2, DMA1_Channel2_IRQn}, /* CH3 */
  68:Driver/timer_driver.c ****         {DMA1_Channel3, DMA1_FLAG_TC3, DMA1_FLAG_GL3, DMA1_Channel3_IRQn}, /* CH4 */
  69:Driver/timer_driver.c ****     },
  70:Driver/timer_driver.c ****     /* TIM4 */
  71:Driver/timer_driver.c ****     {
  72:Driver/timer_driver.c ****         {DMA1_Channel1, DMA1_FLAG_TC1, DMA1_FLAG_GL1, DMA1_Channel1_IRQn}, /* CH1 */
  73:Driver/timer_driver.c ****         {DMA1_Channel4, DMA1_FLAG_TC4, DMA1_FLAG_GL4, DMA1_Channel4_IRQn}, /* CH2 */
  74:Driver/timer_driver.c ****         {DMA1_Channel5, DMA1_FLAG_TC5, DMA1_FLAG_GL5, DMA1_Channel5_IRQn}, /* CH3 */
  75:Driver/timer_driver.c ****         {0, 0, 0, 0},                                                      /* CH4: không có DMA *
  76:Driver/timer_driver.c ****     },
  77:Driver/timer_driver.c **** };
  78:Driver/timer_driver.c **** 
  79:Driver/timer_driver.c **** /* ================================================================
  80:Driver/timer_driver.c ****  *  PRIVATE HELPERS
  81:Driver/timer_driver.c ****  * ================================================================ */
  82:Driver/timer_driver.c **** static int prv_tim_idx(TIM_TypeDef *TIMx)
  83:Driver/timer_driver.c **** {
  27              		.loc 1 83 1 view -0
  28              		.cfi_startproc
  29              		@ args = 0, pretend = 0, frame = 0
  30              		@ frame_needed = 0, uses_anonymous_args = 0
  31              		@ link register save eliminated.
  84:Driver/timer_driver.c ****     if (TIMx == TIM1)
ARM GAS  C:\Users\ADMIN\AppData\Local\Temp\ccIuv89a.s 			page 3


  32              		.loc 1 84 5 view .LVU1
  33              		.loc 1 84 8 is_stmt 0 view .LVU2
  34 0000 0C4B     		ldr	r3, .L8
  35 0002 9842     		cmp	r0, r3
  36 0004 0FD0     		beq	.L3
  85:Driver/timer_driver.c ****         return 0;
  86:Driver/timer_driver.c ****     if (TIMx == TIM2)
  37              		.loc 1 86 5 is_stmt 1 view .LVU3
  38              		.loc 1 86 8 is_stmt 0 view .LVU4
  39 0006 B0F1804F 		cmp	r0, #1073741824
  40 000a 0ED0     		beq	.L4
  87:Driver/timer_driver.c ****         return 1;
  88:Driver/timer_driver.c ****     if (TIMx == TIM3)
  41              		.loc 1 88 5 is_stmt 1 view .LVU5
  42              		.loc 1 88 8 is_stmt 0 view .LVU6
  43 000c A3F59433 		sub	r3, r3, #75776
  44 0010 9842     		cmp	r0, r3
  45 0012 0CD0     		beq	.L5
  89:Driver/timer_driver.c ****         return 2;
  90:Driver/timer_driver.c ****     if (TIMx == TIM4)
  46              		.loc 1 90 5 is_stmt 1 view .LVU7
  47              		.loc 1 90 8 is_stmt 0 view .LVU8
  48 0014 03F58063 		add	r3, r3, #1024
  49 0018 9842     		cmp	r0, r3
  50 001a 01D1     		bne	.L7
  91:Driver/timer_driver.c ****         return 3;
  51              		.loc 1 91 16 view .LVU9
  52 001c 0320     		movs	r0, #3
  53              	.LVL1:
  92:Driver/timer_driver.c ****     return -1;
  93:Driver/timer_driver.c **** }
  54              		.loc 1 93 1 view .LVU10
  55 001e 7047     		bx	lr
  56              	.LVL2:
  57              	.L7:
  92:Driver/timer_driver.c ****     return -1;
  58              		.loc 1 92 12 view .LVU11
  59 0020 4FF0FF30 		mov	r0, #-1
  60              	.LVL3:
  92:Driver/timer_driver.c ****     return -1;
  61              		.loc 1 92 12 view .LVU12
  62 0024 7047     		bx	lr
  63              	.LVL4:
  64              	.L3:
  85:Driver/timer_driver.c ****     if (TIMx == TIM2)
  65              		.loc 1 85 16 view .LVU13
  66 0026 0020     		movs	r0, #0
  67              	.LVL5:
  85:Driver/timer_driver.c ****     if (TIMx == TIM2)
  68              		.loc 1 85 16 view .LVU14
  69 0028 7047     		bx	lr
  70              	.LVL6:
  71              	.L4:
  87:Driver/timer_driver.c ****     if (TIMx == TIM3)
  72              		.loc 1 87 16 view .LVU15
  73 002a 0120     		movs	r0, #1
  74              	.LVL7:
ARM GAS  C:\Users\ADMIN\AppData\Local\Temp\ccIuv89a.s 			page 4


  87:Driver/timer_driver.c ****     if (TIMx == TIM3)
  75              		.loc 1 87 16 view .LVU16
  76 002c 7047     		bx	lr
  77              	.LVL8:
  78              	.L5:
  89:Driver/timer_driver.c ****     if (TIMx == TIM4)
  79              		.loc 1 89 16 view .LVU17
  80 002e 0220     		movs	r0, #2
  81              	.LVL9:
  89:Driver/timer_driver.c ****     if (TIMx == TIM4)
  82              		.loc 1 89 16 view .LVU18
  83 0030 7047     		bx	lr
  84              	.L9:
  85 0032 00BF     		.align	2
  86              	.L8:
  87 0034 002C0140 		.word	1073818624
  88              		.cfi_endproc
  89              	.LFE65:
  91              		.section	.text.prv_tim_cc_irqn,"ax",%progbits
  92              		.align	1
  93              		.syntax unified
  94              		.thumb
  95              		.thumb_func
  97              	prv_tim_cc_irqn:
  98              	.LVL10:
  99              	.LFB67:
  94:Driver/timer_driver.c **** 
  95:Driver/timer_driver.c **** static void prv_rcc_tim(TIM_TypeDef *TIMx, FunctionalState s)
  96:Driver/timer_driver.c **** {
  97:Driver/timer_driver.c ****     if (TIMx == TIM1)
  98:Driver/timer_driver.c ****         RCC_APB2PeriphClockCmd(RCC_APB2Periph_TIM1, s);
  99:Driver/timer_driver.c ****     else if (TIMx == TIM2)
 100:Driver/timer_driver.c ****         RCC_APB1PeriphClockCmd(RCC_APB1Periph_TIM2, s);
 101:Driver/timer_driver.c ****     else if (TIMx == TIM3)
 102:Driver/timer_driver.c ****         RCC_APB1PeriphClockCmd(RCC_APB1Periph_TIM3, s);
 103:Driver/timer_driver.c ****     else if (TIMx == TIM4)
 104:Driver/timer_driver.c ****         RCC_APB1PeriphClockCmd(RCC_APB1Periph_TIM4, s);
 105:Driver/timer_driver.c **** }
 106:Driver/timer_driver.c **** 
 107:Driver/timer_driver.c **** /* FIX #7: TIM1 có 2 vector IRQ riêng biệt:
 108:Driver/timer_driver.c ****  *   TIM1_UP_IRQn  — update interrupt (TIMER_MODE_BASE)
 109:Driver/timer_driver.c ****  *   TIM1_CC_IRQn  — capture/compare (IC / OC / PWM)
 110:Driver/timer_driver.c ****  * Các timer khác (TIM2/3/4) chỉ có 1 vector dùng chung.
 111:Driver/timer_driver.c ****  */
 112:Driver/timer_driver.c **** static IRQn_Type prv_tim_cc_irqn(TIM_TypeDef *TIMx)
 113:Driver/timer_driver.c **** {
 100              		.loc 1 113 1 is_stmt 1 view -0
 101              		.cfi_startproc
 102              		@ args = 0, pretend = 0, frame = 0
 103              		@ frame_needed = 0, uses_anonymous_args = 0
 104              		@ link register save eliminated.
 114:Driver/timer_driver.c ****     if (TIMx == TIM1)
 105              		.loc 1 114 5 view .LVU20
 106              		.loc 1 114 8 is_stmt 0 view .LVU21
 107 0000 0B4B     		ldr	r3, .L16
 108 0002 9842     		cmp	r0, r3
 109 0004 0CD0     		beq	.L12
ARM GAS  C:\Users\ADMIN\AppData\Local\Temp\ccIuv89a.s 			page 5


 115:Driver/timer_driver.c ****         return TIM1_CC_IRQn;
 116:Driver/timer_driver.c ****     if (TIMx == TIM2)
 110              		.loc 1 116 5 is_stmt 1 view .LVU22
 111              		.loc 1 116 8 is_stmt 0 view .LVU23
 112 0006 B0F1804F 		cmp	r0, #1073741824
 113 000a 0BD0     		beq	.L13
 117:Driver/timer_driver.c ****         return TIM2_IRQn;
 118:Driver/timer_driver.c ****     if (TIMx == TIM3)
 114              		.loc 1 118 5 is_stmt 1 view .LVU24
 115              		.loc 1 118 8 is_stmt 0 view .LVU25
 116 000c A3F59433 		sub	r3, r3, #75776
 117 0010 9842     		cmp	r0, r3
 118 0012 09D0     		beq	.L14
 119:Driver/timer_driver.c ****         return TIM3_IRQn;
 120:Driver/timer_driver.c ****     if (TIMx == TIM4)
 119              		.loc 1 120 5 is_stmt 1 view .LVU26
 120              		.loc 1 120 8 is_stmt 0 view .LVU27
 121 0014 03F58063 		add	r3, r3, #1024
 122 0018 9842     		cmp	r0, r3
 123 001a 07D0     		beq	.L15
 121:Driver/timer_driver.c ****         return TIM4_IRQn;
 122:Driver/timer_driver.c ****     return TIM2_IRQn;
 124              		.loc 1 122 12 view .LVU28
 125 001c 1C20     		movs	r0, #28
 126              	.LVL11:
 127              		.loc 1 122 12 view .LVU29
 128 001e 7047     		bx	lr
 129              	.LVL12:
 130              	.L12:
 115:Driver/timer_driver.c ****     if (TIMx == TIM2)
 131              		.loc 1 115 16 view .LVU30
 132 0020 1B20     		movs	r0, #27
 133              	.LVL13:
 115:Driver/timer_driver.c ****     if (TIMx == TIM2)
 134              		.loc 1 115 16 view .LVU31
 135 0022 7047     		bx	lr
 136              	.LVL14:
 137              	.L13:
 117:Driver/timer_driver.c ****     if (TIMx == TIM3)
 138              		.loc 1 117 16 view .LVU32
 139 0024 1C20     		movs	r0, #28
 140              	.LVL15:
 117:Driver/timer_driver.c ****     if (TIMx == TIM3)
 141              		.loc 1 117 16 view .LVU33
 142 0026 7047     		bx	lr
 143              	.LVL16:
 144              	.L14:
 119:Driver/timer_driver.c ****     if (TIMx == TIM4)
 145              		.loc 1 119 16 view .LVU34
 146 0028 1D20     		movs	r0, #29
 147              	.LVL17:
 119:Driver/timer_driver.c ****     if (TIMx == TIM4)
 148              		.loc 1 119 16 view .LVU35
 149 002a 7047     		bx	lr
 150              	.LVL18:
 151              	.L15:
 121:Driver/timer_driver.c ****     return TIM2_IRQn;
ARM GAS  C:\Users\ADMIN\AppData\Local\Temp\ccIuv89a.s 			page 6


 152              		.loc 1 121 16 view .LVU36
 153 002c 1E20     		movs	r0, #30
 154              	.LVL19:
 123:Driver/timer_driver.c **** }
 155              		.loc 1 123 1 view .LVU37
 156 002e 7047     		bx	lr
 157              	.L17:
 158              		.align	2
 159              	.L16:
 160 0030 002C0140 		.word	1073818624
 161              		.cfi_endproc
 162              	.LFE67:
 164              		.section	.text.prv_tim_up_irqn,"ax",%progbits
 165              		.align	1
 166              		.syntax unified
 167              		.thumb
 168              		.thumb_func
 170              	prv_tim_up_irqn:
 171              	.LVL20:
 172              	.LFB68:
 124:Driver/timer_driver.c **** 
 125:Driver/timer_driver.c **** static IRQn_Type prv_tim_up_irqn(TIM_TypeDef *TIMx)
 126:Driver/timer_driver.c **** {
 173              		.loc 1 126 1 is_stmt 1 view -0
 174              		.cfi_startproc
 175              		@ args = 0, pretend = 0, frame = 0
 176              		@ frame_needed = 0, uses_anonymous_args = 0
 177              		@ link register save eliminated.
 127:Driver/timer_driver.c ****     if (TIMx == TIM1)
 178              		.loc 1 127 5 view .LVU39
 179              		.loc 1 127 8 is_stmt 0 view .LVU40
 180 0000 0B4B     		ldr	r3, .L24
 181 0002 9842     		cmp	r0, r3
 182 0004 0CD0     		beq	.L20
 128:Driver/timer_driver.c ****         return TIM1_UP_IRQn; /* TIM1 UP vector riêng */
 129:Driver/timer_driver.c ****     if (TIMx == TIM2)
 183              		.loc 1 129 5 is_stmt 1 view .LVU41
 184              		.loc 1 129 8 is_stmt 0 view .LVU42
 185 0006 B0F1804F 		cmp	r0, #1073741824
 186 000a 0BD0     		beq	.L21
 130:Driver/timer_driver.c ****         return TIM2_IRQn;
 131:Driver/timer_driver.c ****     if (TIMx == TIM3)
 187              		.loc 1 131 5 is_stmt 1 view .LVU43
 188              		.loc 1 131 8 is_stmt 0 view .LVU44
 189 000c A3F59433 		sub	r3, r3, #75776
 190 0010 9842     		cmp	r0, r3
 191 0012 09D0     		beq	.L22
 132:Driver/timer_driver.c ****         return TIM3_IRQn;
 133:Driver/timer_driver.c ****     if (TIMx == TIM4)
 192              		.loc 1 133 5 is_stmt 1 view .LVU45
 193              		.loc 1 133 8 is_stmt 0 view .LVU46
 194 0014 03F58063 		add	r3, r3, #1024
 195 0018 9842     		cmp	r0, r3
 196 001a 07D0     		beq	.L23
 134:Driver/timer_driver.c ****         return TIM4_IRQn;
 135:Driver/timer_driver.c ****     return TIM2_IRQn;
 197              		.loc 1 135 12 view .LVU47
ARM GAS  C:\Users\ADMIN\AppData\Local\Temp\ccIuv89a.s 			page 7


 198 001c 1C20     		movs	r0, #28
 199              	.LVL21:
 200              		.loc 1 135 12 view .LVU48
 201 001e 7047     		bx	lr
 202              	.LVL22:
 203              	.L20:
 128:Driver/timer_driver.c ****     if (TIMx == TIM2)
 204              		.loc 1 128 16 view .LVU49
 205 0020 1920     		movs	r0, #25
 206              	.LVL23:
 128:Driver/timer_driver.c ****     if (TIMx == TIM2)
 207              		.loc 1 128 16 view .LVU50
 208 0022 7047     		bx	lr
 209              	.LVL24:
 210              	.L21:
 130:Driver/timer_driver.c ****     if (TIMx == TIM3)
 211              		.loc 1 130 16 view .LVU51
 212 0024 1C20     		movs	r0, #28
 213              	.LVL25:
 130:Driver/timer_driver.c ****     if (TIMx == TIM3)
 214              		.loc 1 130 16 view .LVU52
 215 0026 7047     		bx	lr
 216              	.LVL26:
 217              	.L22:
 132:Driver/timer_driver.c ****     if (TIMx == TIM4)
 218              		.loc 1 132 16 view .LVU53
 219 0028 1D20     		movs	r0, #29
 220              	.LVL27:
 132:Driver/timer_driver.c ****     if (TIMx == TIM4)
 221              		.loc 1 132 16 view .LVU54
 222 002a 7047     		bx	lr
 223              	.LVL28:
 224              	.L23:
 134:Driver/timer_driver.c ****     return TIM2_IRQn;
 225              		.loc 1 134 16 view .LVU55
 226 002c 1E20     		movs	r0, #30
 227              	.LVL29:
 136:Driver/timer_driver.c **** }
 228              		.loc 1 136 1 view .LVU56
 229 002e 7047     		bx	lr
 230              	.L25:
 231              		.align	2
 232              	.L24:
 233 0030 002C0140 		.word	1073818624
 234              		.cfi_endproc
 235              	.LFE68:
 237              		.section	.text.prv_spl_ch,"ax",%progbits
 238              		.align	1
 239              		.syntax unified
 240              		.thumb
 241              		.thumb_func
 243              	prv_spl_ch:
 244              	.LVL30:
 245              	.LFB69:
 137:Driver/timer_driver.c **** 
 138:Driver/timer_driver.c **** static uint16_t prv_spl_ch(Timer_Ch_t ch)
 139:Driver/timer_driver.c **** {
ARM GAS  C:\Users\ADMIN\AppData\Local\Temp\ccIuv89a.s 			page 8


 246              		.loc 1 139 1 is_stmt 1 view -0
 247              		.cfi_startproc
 248              		@ args = 0, pretend = 0, frame = 0
 249              		@ frame_needed = 0, uses_anonymous_args = 0
 250              		@ link register save eliminated.
 140:Driver/timer_driver.c ****     static const uint16_t tbl[4] = {
 251              		.loc 1 140 5 view .LVU58
 141:Driver/timer_driver.c ****         TIM_Channel_1,
 142:Driver/timer_driver.c ****         TIM_Channel_2,
 143:Driver/timer_driver.c ****         TIM_Channel_3,
 144:Driver/timer_driver.c ****         TIM_Channel_4,
 145:Driver/timer_driver.c ****     };
 146:Driver/timer_driver.c ****     return tbl[ch];
 252              		.loc 1 146 5 view .LVU59
 147:Driver/timer_driver.c **** }
 253              		.loc 1 147 1 is_stmt 0 view .LVU60
 254 0000 014B     		ldr	r3, .L27
 255 0002 33F81000 		ldrh	r0, [r3, r0, lsl #1]
 256              	.LVL31:
 257              		.loc 1 147 1 view .LVU61
 258 0006 7047     		bx	lr
 259              	.L28:
 260              		.align	2
 261              	.L27:
 262 0008 00000000 		.word	.LANCHOR0
 263              		.cfi_endproc
 264              	.LFE69:
 266              		.section	.text.prv_it_flag,"ax",%progbits
 267              		.align	1
 268              		.syntax unified
 269              		.thumb
 270              		.thumb_func
 272              	prv_it_flag:
 273              	.LVL32:
 274              	.LFB70:
 148:Driver/timer_driver.c **** 
 149:Driver/timer_driver.c **** static uint16_t prv_it_flag(Timer_Ch_t ch)
 150:Driver/timer_driver.c **** {
 275              		.loc 1 150 1 is_stmt 1 view -0
 276              		.cfi_startproc
 277              		@ args = 0, pretend = 0, frame = 0
 278              		@ frame_needed = 0, uses_anonymous_args = 0
 279              		@ link register save eliminated.
 151:Driver/timer_driver.c ****     static const uint16_t tbl[4] = {
 280              		.loc 1 151 5 view .LVU63
 152:Driver/timer_driver.c ****         TIM_IT_CC1,
 153:Driver/timer_driver.c ****         TIM_IT_CC2,
 154:Driver/timer_driver.c ****         TIM_IT_CC3,
 155:Driver/timer_driver.c ****         TIM_IT_CC4,
 156:Driver/timer_driver.c ****     };
 157:Driver/timer_driver.c ****     return tbl[ch];
 281              		.loc 1 157 5 view .LVU64
 158:Driver/timer_driver.c **** }
 282              		.loc 1 158 1 is_stmt 0 view .LVU65
 283 0000 014B     		ldr	r3, .L30
 284 0002 33F81000 		ldrh	r0, [r3, r0, lsl #1]
 285              	.LVL33:
ARM GAS  C:\Users\ADMIN\AppData\Local\Temp\ccIuv89a.s 			page 9


 286              		.loc 1 158 1 view .LVU66
 287 0006 7047     		bx	lr
 288              	.L31:
 289              		.align	2
 290              	.L30:
 291 0008 00000000 		.word	.LANCHOR1
 292              		.cfi_endproc
 293              	.LFE70:
 295              		.section	.text.prv_dma_src,"ax",%progbits
 296              		.align	1
 297              		.syntax unified
 298              		.thumb
 299              		.thumb_func
 301              	prv_dma_src:
 302              	.LVL34:
 303              	.LFB71:
 159:Driver/timer_driver.c **** 
 160:Driver/timer_driver.c **** static uint16_t prv_dma_src(Timer_Ch_t ch)
 161:Driver/timer_driver.c **** {
 304              		.loc 1 161 1 is_stmt 1 view -0
 305              		.cfi_startproc
 306              		@ args = 0, pretend = 0, frame = 0
 307              		@ frame_needed = 0, uses_anonymous_args = 0
 308              		@ link register save eliminated.
 162:Driver/timer_driver.c ****     static const uint16_t tbl[4] = {
 309              		.loc 1 162 5 view .LVU68
 163:Driver/timer_driver.c ****         TIM_DMA_CC1,
 164:Driver/timer_driver.c ****         TIM_DMA_CC2,
 165:Driver/timer_driver.c ****         TIM_DMA_CC3,
 166:Driver/timer_driver.c ****         TIM_DMA_CC4,
 167:Driver/timer_driver.c ****     };
 168:Driver/timer_driver.c ****     return tbl[ch];
 310              		.loc 1 168 5 view .LVU69
 169:Driver/timer_driver.c **** }
 311              		.loc 1 169 1 is_stmt 0 view .LVU70
 312 0000 014B     		ldr	r3, .L33
 313 0002 33F81000 		ldrh	r0, [r3, r0, lsl #1]
 314              	.LVL35:
 315              		.loc 1 169 1 view .LVU71
 316 0006 7047     		bx	lr
 317              	.L34:
 318              		.align	2
 319              	.L33:
 320 0008 00000000 		.word	.LANCHOR2
 321              		.cfi_endproc
 322              	.LFE71:
 324              		.section	.text.prv_ccr_addr,"ax",%progbits
 325              		.align	1
 326              		.syntax unified
 327              		.thumb
 328              		.thumb_func
 330              	prv_ccr_addr:
 331              	.LVL36:
 332              	.LFB72:
 170:Driver/timer_driver.c **** 
 171:Driver/timer_driver.c **** static uint32_t prv_ccr_addr(TIM_TypeDef *TIMx, Timer_Ch_t ch)
 172:Driver/timer_driver.c **** {
ARM GAS  C:\Users\ADMIN\AppData\Local\Temp\ccIuv89a.s 			page 10


 333              		.loc 1 172 1 is_stmt 1 view -0
 334              		.cfi_startproc
 335              		@ args = 0, pretend = 0, frame = 0
 336              		@ frame_needed = 0, uses_anonymous_args = 0
 337              		@ link register save eliminated.
 173:Driver/timer_driver.c ****     switch (ch)
 338              		.loc 1 173 5 view .LVU73
 339 0000 0329     		cmp	r1, #3
 340 0002 0BD8     		bhi	.L42
 341 0004 DFE801F0 		tbb	[pc, r1]
 342              	.L38:
 343 0008 02       		.byte	(.L41-.L38)/2
 344 0009 04       		.byte	(.L40-.L38)/2
 345 000a 06       		.byte	(.L39-.L38)/2
 346 000b 08       		.byte	(.L37-.L38)/2
 347              		.p2align 1
 348              	.L41:
 174:Driver/timer_driver.c ****     {
 175:Driver/timer_driver.c ****     case TIMER_CH1:
 176:Driver/timer_driver.c ****         return (uint32_t)&TIMx->CCR1;
 349              		.loc 1 176 9 view .LVU74
 350              		.loc 1 176 26 is_stmt 0 view .LVU75
 351 000c 3430     		adds	r0, r0, #52
 352              	.LVL37:
 353              		.loc 1 176 16 view .LVU76
 354 000e 7047     		bx	lr
 355              	.LVL38:
 356              	.L40:
 177:Driver/timer_driver.c ****     case TIMER_CH2:
 178:Driver/timer_driver.c ****         return (uint32_t)&TIMx->CCR2;
 357              		.loc 1 178 9 is_stmt 1 view .LVU77
 358              		.loc 1 178 26 is_stmt 0 view .LVU78
 359 0010 3830     		adds	r0, r0, #56
 360              	.LVL39:
 361              		.loc 1 178 16 view .LVU79
 362 0012 7047     		bx	lr
 363              	.LVL40:
 364              	.L39:
 179:Driver/timer_driver.c ****     case TIMER_CH3:
 180:Driver/timer_driver.c ****         return (uint32_t)&TIMx->CCR3;
 365              		.loc 1 180 9 is_stmt 1 view .LVU80
 366              		.loc 1 180 26 is_stmt 0 view .LVU81
 367 0014 3C30     		adds	r0, r0, #60
 368              	.LVL41:
 369              		.loc 1 180 16 view .LVU82
 370 0016 7047     		bx	lr
 371              	.LVL42:
 372              	.L37:
 181:Driver/timer_driver.c ****     case TIMER_CH4:
 182:Driver/timer_driver.c ****         return (uint32_t)&TIMx->CCR4;
 373              		.loc 1 182 9 is_stmt 1 view .LVU83
 374              		.loc 1 182 26 is_stmt 0 view .LVU84
 375 0018 4030     		adds	r0, r0, #64
 376              	.LVL43:
 377              		.loc 1 182 16 view .LVU85
 378 001a 7047     		bx	lr
 379              	.LVL44:
ARM GAS  C:\Users\ADMIN\AppData\Local\Temp\ccIuv89a.s 			page 11


 380              	.L42:
 173:Driver/timer_driver.c ****     {
 381              		.loc 1 173 5 view .LVU86
 382 001c 0020     		movs	r0, #0
 383              	.LVL45:
 183:Driver/timer_driver.c ****     default:
 184:Driver/timer_driver.c ****         return 0;
 185:Driver/timer_driver.c ****     }
 186:Driver/timer_driver.c **** }
 384              		.loc 1 186 1 view .LVU87
 385 001e 7047     		bx	lr
 386              		.cfi_endproc
 387              	.LFE72:
 389              		.section	.text.prv_rcc_tim,"ax",%progbits
 390              		.align	1
 391              		.syntax unified
 392              		.thumb
 393              		.thumb_func
 395              	prv_rcc_tim:
 396              	.LVL46:
 397              	.LFB66:
  96:Driver/timer_driver.c ****     if (TIMx == TIM1)
 398              		.loc 1 96 1 is_stmt 1 view -0
 399              		.cfi_startproc
 400              		@ args = 0, pretend = 0, frame = 0
 401              		@ frame_needed = 0, uses_anonymous_args = 0
  96:Driver/timer_driver.c ****     if (TIMx == TIM1)
 402              		.loc 1 96 1 is_stmt 0 view .LVU89
 403 0000 08B5     		push	{r3, lr}
 404              	.LCFI0:
 405              		.cfi_def_cfa_offset 8
 406              		.cfi_offset 3, -8
 407              		.cfi_offset 14, -4
  97:Driver/timer_driver.c ****         RCC_APB2PeriphClockCmd(RCC_APB2Periph_TIM1, s);
 408              		.loc 1 97 5 is_stmt 1 view .LVU90
  97:Driver/timer_driver.c ****         RCC_APB2PeriphClockCmd(RCC_APB2Periph_TIM1, s);
 409              		.loc 1 97 8 is_stmt 0 view .LVU91
 410 0002 0F4B     		ldr	r3, .L53
 411 0004 9842     		cmp	r0, r3
 412 0006 09D0     		beq	.L49
  99:Driver/timer_driver.c ****         RCC_APB1PeriphClockCmd(RCC_APB1Periph_TIM2, s);
 413              		.loc 1 99 10 is_stmt 1 view .LVU92
  99:Driver/timer_driver.c ****         RCC_APB1PeriphClockCmd(RCC_APB1Periph_TIM2, s);
 414              		.loc 1 99 13 is_stmt 0 view .LVU93
 415 0008 B0F1804F 		cmp	r0, #1073741824
 416 000c 0BD0     		beq	.L50
 101:Driver/timer_driver.c ****         RCC_APB1PeriphClockCmd(RCC_APB1Periph_TIM3, s);
 417              		.loc 1 101 10 is_stmt 1 view .LVU94
 101:Driver/timer_driver.c ****         RCC_APB1PeriphClockCmd(RCC_APB1Periph_TIM3, s);
 418              		.loc 1 101 13 is_stmt 0 view .LVU95
 419 000e 0D4B     		ldr	r3, .L53+4
 420 0010 9842     		cmp	r0, r3
 421 0012 0CD0     		beq	.L51
 103:Driver/timer_driver.c ****         RCC_APB1PeriphClockCmd(RCC_APB1Periph_TIM4, s);
 422              		.loc 1 103 10 is_stmt 1 view .LVU96
 103:Driver/timer_driver.c ****         RCC_APB1PeriphClockCmd(RCC_APB1Periph_TIM4, s);
 423              		.loc 1 103 13 is_stmt 0 view .LVU97
ARM GAS  C:\Users\ADMIN\AppData\Local\Temp\ccIuv89a.s 			page 12


 424 0014 0C4B     		ldr	r3, .L53+8
 425 0016 9842     		cmp	r0, r3
 426 0018 0DD0     		beq	.L52
 427              	.LVL47:
 428              	.L43:
 105:Driver/timer_driver.c **** 
 429              		.loc 1 105 1 view .LVU98
 430 001a 08BD     		pop	{r3, pc}
 431              	.LVL48:
 432              	.L49:
  98:Driver/timer_driver.c ****     else if (TIMx == TIM2)
 433              		.loc 1 98 9 is_stmt 1 view .LVU99
 434 001c 4FF40060 		mov	r0, #2048
 435              	.LVL49:
  98:Driver/timer_driver.c ****     else if (TIMx == TIM2)
 436              		.loc 1 98 9 is_stmt 0 view .LVU100
 437 0020 FFF7FEFF 		bl	RCC_APB2PeriphClockCmd
 438              	.LVL50:
  98:Driver/timer_driver.c ****     else if (TIMx == TIM2)
 439              		.loc 1 98 9 view .LVU101
 440 0024 F9E7     		b	.L43
 441              	.LVL51:
 442              	.L50:
 100:Driver/timer_driver.c ****     else if (TIMx == TIM3)
 443              		.loc 1 100 9 is_stmt 1 view .LVU102
 444 0026 0120     		movs	r0, #1
 445              	.LVL52:
 100:Driver/timer_driver.c ****     else if (TIMx == TIM3)
 446              		.loc 1 100 9 is_stmt 0 view .LVU103
 447 0028 FFF7FEFF 		bl	RCC_APB1PeriphClockCmd
 448              	.LVL53:
 100:Driver/timer_driver.c ****     else if (TIMx == TIM3)
 449              		.loc 1 100 9 view .LVU104
 450 002c F5E7     		b	.L43
 451              	.LVL54:
 452              	.L51:
 102:Driver/timer_driver.c ****     else if (TIMx == TIM4)
 453              		.loc 1 102 9 is_stmt 1 view .LVU105
 454 002e 0220     		movs	r0, #2
 455              	.LVL55:
 102:Driver/timer_driver.c ****     else if (TIMx == TIM4)
 456              		.loc 1 102 9 is_stmt 0 view .LVU106
 457 0030 FFF7FEFF 		bl	RCC_APB1PeriphClockCmd
 458              	.LVL56:
 102:Driver/timer_driver.c ****     else if (TIMx == TIM4)
 459              		.loc 1 102 9 view .LVU107
 460 0034 F1E7     		b	.L43
 461              	.LVL57:
 462              	.L52:
 104:Driver/timer_driver.c **** }
 463              		.loc 1 104 9 is_stmt 1 view .LVU108
 464 0036 0420     		movs	r0, #4
 465              	.LVL58:
 104:Driver/timer_driver.c **** }
 466              		.loc 1 104 9 is_stmt 0 view .LVU109
 467 0038 FFF7FEFF 		bl	RCC_APB1PeriphClockCmd
 468              	.LVL59:
ARM GAS  C:\Users\ADMIN\AppData\Local\Temp\ccIuv89a.s 			page 13


 105:Driver/timer_driver.c **** 
 469              		.loc 1 105 1 view .LVU110
 470 003c EDE7     		b	.L43
 471              	.L54:
 472 003e 00BF     		.align	2
 473              	.L53:
 474 0040 002C0140 		.word	1073818624
 475 0044 00040040 		.word	1073742848
 476 0048 00080040 		.word	1073743872
 477              		.cfi_endproc
 478              	.LFE66:
 480              		.section	.text.prv_gpio_open,"ax",%progbits
 481              		.align	1
 482              		.syntax unified
 483              		.thumb
 484              		.thumb_func
 486              	prv_gpio_open:
 487              	.LVL60:
 488              	.LFB75:
 187:Driver/timer_driver.c **** 
 188:Driver/timer_driver.c **** static uint32_t prv_get_ccr(TIM_TypeDef *TIMx, Timer_Ch_t ch)
 189:Driver/timer_driver.c **** {
 190:Driver/timer_driver.c ****     switch (ch)
 191:Driver/timer_driver.c ****     {
 192:Driver/timer_driver.c ****     case TIMER_CH1:
 193:Driver/timer_driver.c ****         return TIM_GetCapture1(TIMx);
 194:Driver/timer_driver.c ****     case TIMER_CH2:
 195:Driver/timer_driver.c ****         return TIM_GetCapture2(TIMx);
 196:Driver/timer_driver.c ****     case TIMER_CH3:
 197:Driver/timer_driver.c ****         return TIM_GetCapture3(TIMx);
 198:Driver/timer_driver.c ****     case TIMER_CH4:
 199:Driver/timer_driver.c ****         return TIM_GetCapture4(TIMx);
 200:Driver/timer_driver.c ****     default:
 201:Driver/timer_driver.c ****         return 0;
 202:Driver/timer_driver.c ****     }
 203:Driver/timer_driver.c **** }
 204:Driver/timer_driver.c **** 
 205:Driver/timer_driver.c **** static void prv_set_ccr(TIM_TypeDef *TIMx, Timer_Ch_t ch, uint16_t val)
 206:Driver/timer_driver.c **** {
 207:Driver/timer_driver.c ****     switch (ch)
 208:Driver/timer_driver.c ****     {
 209:Driver/timer_driver.c ****     case TIMER_CH1:
 210:Driver/timer_driver.c ****         TIM_SetCompare1(TIMx, val);
 211:Driver/timer_driver.c ****         break;
 212:Driver/timer_driver.c ****     case TIMER_CH2:
 213:Driver/timer_driver.c ****         TIM_SetCompare2(TIMx, val);
 214:Driver/timer_driver.c ****         break;
 215:Driver/timer_driver.c ****     case TIMER_CH3:
 216:Driver/timer_driver.c ****         TIM_SetCompare3(TIMx, val);
 217:Driver/timer_driver.c ****         break;
 218:Driver/timer_driver.c ****     case TIMER_CH4:
 219:Driver/timer_driver.c ****         TIM_SetCompare4(TIMx, val);
 220:Driver/timer_driver.c ****         break;
 221:Driver/timer_driver.c ****     }
 222:Driver/timer_driver.c **** }
 223:Driver/timer_driver.c **** 
 224:Driver/timer_driver.c **** /* ----------------------------------------------------------------
ARM GAS  C:\Users\ADMIN\AppData\Local\Temp\ccIuv89a.s 			page 14


 225:Driver/timer_driver.c ****  *  GPIO auto-config
 226:Driver/timer_driver.c ****  *
 227:Driver/timer_driver.c ****  *  Default pin map STM32F103C8T6 (no remap):
 228:Driver/timer_driver.c ****  *    TIM1: CH1=PA8  CH2=PA9  CH3=PA10 CH4=PA11
 229:Driver/timer_driver.c ****  *    TIM2: CH1=PA0  CH2=PA1  CH3=PA2  CH4=PA3
 230:Driver/timer_driver.c ****  *    TIM3: CH1=PA6  CH2=PA7  CH3=PB0  CH4=PB1
 231:Driver/timer_driver.c ****  *    TIM4: CH1=PB6  CH2=PB7  CH3=PB8  CH4=PB9
 232:Driver/timer_driver.c ****  * ---------------------------------------------------------------- */
 233:Driver/timer_driver.c **** typedef struct
 234:Driver/timer_driver.c **** {
 235:Driver/timer_driver.c ****     GPIO_TypeDef *port;
 236:Driver/timer_driver.c ****     uint16_t pin;
 237:Driver/timer_driver.c **** } prv_pin_t;
 238:Driver/timer_driver.c **** 
 239:Driver/timer_driver.c **** static const prv_pin_t pin_map[4][4] = {
 240:Driver/timer_driver.c ****     {{GPIOA, GPIO_Pin_8}, {GPIOA, GPIO_Pin_9}, {GPIOA, GPIO_Pin_10}, {GPIOA, GPIO_Pin_11}},
 241:Driver/timer_driver.c ****     {{GPIOA, GPIO_Pin_0}, {GPIOA, GPIO_Pin_1}, {GPIOA, GPIO_Pin_2}, {GPIOA, GPIO_Pin_3}},
 242:Driver/timer_driver.c ****     {{GPIOA, GPIO_Pin_6}, {GPIOA, GPIO_Pin_7}, {GPIOB, GPIO_Pin_0}, {GPIOB, GPIO_Pin_1}},
 243:Driver/timer_driver.c ****     {{GPIOB, GPIO_Pin_6}, {GPIOB, GPIO_Pin_7}, {GPIOB, GPIO_Pin_8}, {GPIOB, GPIO_Pin_9}},
 244:Driver/timer_driver.c **** };
 245:Driver/timer_driver.c **** 
 246:Driver/timer_driver.c **** static void prv_gpio_open(TIM_TypeDef *TIMx, Timer_Ch_t ch, Timer_Mode_t mode)
 247:Driver/timer_driver.c **** {
 489              		.loc 1 247 1 is_stmt 1 view -0
 490              		.cfi_startproc
 491              		@ args = 0, pretend = 0, frame = 8
 492              		@ frame_needed = 0, uses_anonymous_args = 0
 493              		.loc 1 247 1 is_stmt 0 view .LVU112
 494 0000 70B5     		push	{r4, r5, r6, lr}
 495              	.LCFI1:
 496              		.cfi_def_cfa_offset 16
 497              		.cfi_offset 4, -16
 498              		.cfi_offset 5, -12
 499              		.cfi_offset 6, -8
 500              		.cfi_offset 14, -4
 501 0002 82B0     		sub	sp, sp, #8
 502              	.LCFI2:
 503              		.cfi_def_cfa_offset 24
 504 0004 0C46     		mov	r4, r1
 505 0006 1546     		mov	r5, r2
 248:Driver/timer_driver.c ****     GPIO_InitTypeDef gpio;
 506              		.loc 1 248 5 is_stmt 1 view .LVU113
 249:Driver/timer_driver.c ****     int tidx = prv_tim_idx(TIMx);
 507              		.loc 1 249 5 view .LVU114
 508              		.loc 1 249 16 is_stmt 0 view .LVU115
 509 0008 FFF7FEFF 		bl	prv_tim_idx
 510              	.LVL61:
 250:Driver/timer_driver.c ****     GPIO_TypeDef *port;
 511              		.loc 1 250 5 is_stmt 1 view .LVU116
 251:Driver/timer_driver.c ****     uint16_t pin;
 512              		.loc 1 251 5 view .LVU117
 252:Driver/timer_driver.c **** 
 253:Driver/timer_driver.c ****     if (tidx < 0)
 513              		.loc 1 253 5 view .LVU118
 514              		.loc 1 253 8 is_stmt 0 view .LVU119
 515 000c 0028     		cmp	r0, #0
 516              		.loc 1 253 8 view .LVU120
ARM GAS  C:\Users\ADMIN\AppData\Local\Temp\ccIuv89a.s 			page 15


 517 000e 30DB     		blt	.L55
 254:Driver/timer_driver.c ****         return;
 255:Driver/timer_driver.c **** 
 256:Driver/timer_driver.c ****     port = pin_map[tidx][ch].port;
 518              		.loc 1 256 5 is_stmt 1 view .LVU121
 519              		.loc 1 256 10 is_stmt 0 view .LVU122
 520 0010 194B     		ldr	r3, .L65
 521 0012 04EB8001 		add	r1, r4, r0, lsl #2
 522 0016 53F83140 		ldr	r4, [r3, r1, lsl #3]
 523              	.LVL62:
 257:Driver/timer_driver.c ****     pin = pin_map[tidx][ch].pin;
 524              		.loc 1 257 5 is_stmt 1 view .LVU123
 525              		.loc 1 257 9 is_stmt 0 view .LVU124
 526 001a 03EBC101 		add	r1, r3, r1, lsl #3
 527 001e 8E88     		ldrh	r6, [r1, #4]
 528              	.LVL63:
 258:Driver/timer_driver.c **** 
 259:Driver/timer_driver.c ****     if (port == GPIOA)
 529              		.loc 1 259 5 is_stmt 1 view .LVU125
 530              		.loc 1 259 8 is_stmt 0 view .LVU126
 531 0020 164B     		ldr	r3, .L65+4
 532 0022 9C42     		cmp	r4, r3
 533 0024 16D0     		beq	.L64
 260:Driver/timer_driver.c ****         RCC_APB2PeriphClockCmd(RCC_APB2Periph_GPIOA, ENABLE);
 261:Driver/timer_driver.c ****     else
 262:Driver/timer_driver.c ****         RCC_APB2PeriphClockCmd(RCC_APB2Periph_GPIOB, ENABLE);
 534              		.loc 1 262 9 is_stmt 1 view .LVU127
 535 0026 0121     		movs	r1, #1
 536 0028 0820     		movs	r0, #8
 537              	.LVL64:
 538              		.loc 1 262 9 is_stmt 0 view .LVU128
 539 002a FFF7FEFF 		bl	RCC_APB2PeriphClockCmd
 540              	.LVL65:
 541              	.L58:
 263:Driver/timer_driver.c ****     RCC_APB2PeriphClockCmd(RCC_APB2Periph_AFIO, ENABLE);
 542              		.loc 1 263 5 is_stmt 1 view .LVU129
 543 002e 0121     		movs	r1, #1
 544 0030 0846     		mov	r0, r1
 545 0032 FFF7FEFF 		bl	RCC_APB2PeriphClockCmd
 546              	.LVL66:
 264:Driver/timer_driver.c **** 
 265:Driver/timer_driver.c ****     GPIO_StructInit(&gpio);
 547              		.loc 1 265 5 view .LVU130
 548 0036 01A8     		add	r0, sp, #4
 549 0038 FFF7FEFF 		bl	GPIO_StructInit
 550              	.LVL67:
 266:Driver/timer_driver.c ****     gpio.GPIO_Pin = pin;
 551              		.loc 1 266 5 view .LVU131
 552              		.loc 1 266 19 is_stmt 0 view .LVU132
 553 003c ADF80460 		strh	r6, [sp, #4]	@ movhi
 267:Driver/timer_driver.c **** 
 268:Driver/timer_driver.c ****     if (mode == TIMER_MODE_PWM || mode == TIMER_MODE_OC)
 554              		.loc 1 268 5 is_stmt 1 view .LVU133
 555              		.loc 1 268 8 is_stmt 0 view .LVU134
 556 0040 012D     		cmp	r5, #1
 557 0042 0CD0     		beq	.L59
 558              		.loc 1 268 32 discriminator 1 view .LVU135
ARM GAS  C:\Users\ADMIN\AppData\Local\Temp\ccIuv89a.s 			page 16


 559 0044 032D     		cmp	r5, #3
 560 0046 0AD0     		beq	.L59
 269:Driver/timer_driver.c ****     {
 270:Driver/timer_driver.c ****         gpio.GPIO_Mode = GPIO_Mode_AF_PP;
 271:Driver/timer_driver.c ****         gpio.GPIO_Speed = GPIO_Speed_50MHz;
 272:Driver/timer_driver.c ****     }
 273:Driver/timer_driver.c ****     else if (mode == TIMER_MODE_IC)
 561              		.loc 1 273 10 is_stmt 1 view .LVU136
 562              		.loc 1 273 13 is_stmt 0 view .LVU137
 563 0048 022D     		cmp	r5, #2
 564 004a 12D1     		bne	.L55
 274:Driver/timer_driver.c ****     {
 275:Driver/timer_driver.c ****         gpio.GPIO_Mode = GPIO_Mode_IN_FLOATING;
 565              		.loc 1 275 9 is_stmt 1 view .LVU138
 566              		.loc 1 275 24 is_stmt 0 view .LVU139
 567 004c 0423     		movs	r3, #4
 568 004e 8DF80730 		strb	r3, [sp, #7]
 569 0052 0AE0     		b	.L61
 570              	.LVL68:
 571              	.L64:
 260:Driver/timer_driver.c ****     else
 572              		.loc 1 260 9 is_stmt 1 view .LVU140
 573 0054 0121     		movs	r1, #1
 574 0056 0420     		movs	r0, #4
 575              	.LVL69:
 260:Driver/timer_driver.c ****     else
 576              		.loc 1 260 9 is_stmt 0 view .LVU141
 577 0058 FFF7FEFF 		bl	RCC_APB2PeriphClockCmd
 578              	.LVL70:
 579 005c E7E7     		b	.L58
 580              	.L59:
 270:Driver/timer_driver.c ****         gpio.GPIO_Speed = GPIO_Speed_50MHz;
 581              		.loc 1 270 9 is_stmt 1 view .LVU142
 270:Driver/timer_driver.c ****         gpio.GPIO_Speed = GPIO_Speed_50MHz;
 582              		.loc 1 270 24 is_stmt 0 view .LVU143
 583 005e 1823     		movs	r3, #24
 584 0060 8DF80730 		strb	r3, [sp, #7]
 271:Driver/timer_driver.c ****     }
 585              		.loc 1 271 9 is_stmt 1 view .LVU144
 271:Driver/timer_driver.c ****     }
 586              		.loc 1 271 25 is_stmt 0 view .LVU145
 587 0064 0323     		movs	r3, #3
 588 0066 8DF80630 		strb	r3, [sp, #6]
 589              	.L61:
 276:Driver/timer_driver.c ****     }
 277:Driver/timer_driver.c ****     else
 278:Driver/timer_driver.c ****     {
 279:Driver/timer_driver.c ****         return; /* BASE: không cần GPIO */
 280:Driver/timer_driver.c ****     }
 281:Driver/timer_driver.c **** 
 282:Driver/timer_driver.c ****     GPIO_Init(port, &gpio);
 590              		.loc 1 282 5 is_stmt 1 view .LVU146
 591 006a 01A9     		add	r1, sp, #4
 592 006c 2046     		mov	r0, r4
 593 006e FFF7FEFF 		bl	GPIO_Init
 594              	.LVL71:
 595              	.L55:
ARM GAS  C:\Users\ADMIN\AppData\Local\Temp\ccIuv89a.s 			page 17


 283:Driver/timer_driver.c **** }
 596              		.loc 1 283 1 is_stmt 0 view .LVU147
 597 0072 02B0     		add	sp, sp, #8
 598              	.LCFI3:
 599              		.cfi_def_cfa_offset 16
 600              		@ sp needed
 601 0074 70BD     		pop	{r4, r5, r6, pc}
 602              	.L66:
 603 0076 00BF     		.align	2
 604              	.L65:
 605 0078 00000000 		.word	.LANCHOR3
 606 007c 00080140 		.word	1073809408
 607              		.cfi_endproc
 608              	.LFE75:
 610              		.section	.text.prv_gpio_close,"ax",%progbits
 611              		.align	1
 612              		.syntax unified
 613              		.thumb
 614              		.thumb_func
 616              	prv_gpio_close:
 617              	.LVL72:
 618              	.LFB76:
 284:Driver/timer_driver.c **** 
 285:Driver/timer_driver.c **** static void prv_gpio_close(TIM_TypeDef *TIMx, Timer_Ch_t ch)
 286:Driver/timer_driver.c **** {
 619              		.loc 1 286 1 is_stmt 1 view -0
 620              		.cfi_startproc
 621              		@ args = 0, pretend = 0, frame = 8
 622              		@ frame_needed = 0, uses_anonymous_args = 0
 623              		.loc 1 286 1 is_stmt 0 view .LVU149
 624 0000 30B5     		push	{r4, r5, lr}
 625              	.LCFI4:
 626              		.cfi_def_cfa_offset 12
 627              		.cfi_offset 4, -12
 628              		.cfi_offset 5, -8
 629              		.cfi_offset 14, -4
 630 0002 83B0     		sub	sp, sp, #12
 631              	.LCFI5:
 632              		.cfi_def_cfa_offset 24
 633 0004 0C46     		mov	r4, r1
 287:Driver/timer_driver.c ****     GPIO_InitTypeDef gpio;
 634              		.loc 1 287 5 is_stmt 1 view .LVU150
 288:Driver/timer_driver.c ****     int tidx = prv_tim_idx(TIMx);
 635              		.loc 1 288 5 view .LVU151
 636              		.loc 1 288 16 is_stmt 0 view .LVU152
 637 0006 FFF7FEFF 		bl	prv_tim_idx
 638              	.LVL73:
 289:Driver/timer_driver.c ****     if (tidx < 0)
 639              		.loc 1 289 5 is_stmt 1 view .LVU153
 640              		.loc 1 289 8 is_stmt 0 view .LVU154
 641 000a 051E     		subs	r5, r0, #0
 642 000c 13DB     		blt	.L67
 290:Driver/timer_driver.c ****         return;
 291:Driver/timer_driver.c **** 
 292:Driver/timer_driver.c ****     GPIO_StructInit(&gpio);
 643              		.loc 1 292 5 is_stmt 1 view .LVU155
 644 000e 01A8     		add	r0, sp, #4
ARM GAS  C:\Users\ADMIN\AppData\Local\Temp\ccIuv89a.s 			page 18


 645              	.LVL74:
 646              		.loc 1 292 5 is_stmt 0 view .LVU156
 647 0010 FFF7FEFF 		bl	GPIO_StructInit
 648              	.LVL75:
 293:Driver/timer_driver.c ****     gpio.GPIO_Pin = pin_map[tidx][ch].pin;
 649              		.loc 1 293 5 is_stmt 1 view .LVU157
 650              		.loc 1 293 38 is_stmt 0 view .LVU158
 651 0014 094B     		ldr	r3, .L71
 652 0016 04EB8500 		add	r0, r4, r5, lsl #2
 653 001a 03EBC002 		add	r2, r3, r0, lsl #3
 654 001e 9288     		ldrh	r2, [r2, #4]
 655              		.loc 1 293 19 view .LVU159
 656 0020 ADF80420 		strh	r2, [sp, #4]	@ movhi
 294:Driver/timer_driver.c ****     gpio.GPIO_Mode = GPIO_Mode_IN_FLOATING;
 657              		.loc 1 294 5 is_stmt 1 view .LVU160
 658              		.loc 1 294 20 is_stmt 0 view .LVU161
 659 0024 0422     		movs	r2, #4
 660 0026 8DF80720 		strb	r2, [sp, #7]
 295:Driver/timer_driver.c ****     GPIO_Init(pin_map[tidx][ch].port, &gpio);
 661              		.loc 1 295 5 is_stmt 1 view .LVU162
 662 002a 0DEB0201 		add	r1, sp, r2
 663 002e 53F83000 		ldr	r0, [r3, r0, lsl #3]
 664 0032 FFF7FEFF 		bl	GPIO_Init
 665              	.LVL76:
 666              	.L67:
 296:Driver/timer_driver.c **** }
 667              		.loc 1 296 1 is_stmt 0 view .LVU163
 668 0036 03B0     		add	sp, sp, #12
 669              	.LCFI6:
 670              		.cfi_def_cfa_offset 12
 671              		@ sp needed
 672 0038 30BD     		pop	{r4, r5, pc}
 673              	.LVL77:
 674              	.L72:
 675              		.loc 1 296 1 view .LVU164
 676 003a 00BF     		.align	2
 677              	.L71:
 678 003c 00000000 		.word	.LANCHOR3
 679              		.cfi_endproc
 680              	.LFE76:
 682              		.section	.text.prv_timebase_init,"ax",%progbits
 683              		.align	1
 684              		.syntax unified
 685              		.thumb
 686              		.thumb_func
 688              	prv_timebase_init:
 689              	.LVL78:
 690              	.LFB80:
 297:Driver/timer_driver.c **** 
 298:Driver/timer_driver.c **** /* ----------------------------------------------------------------
 299:Driver/timer_driver.c ****  *  DMA open / close
 300:Driver/timer_driver.c ****  * ---------------------------------------------------------------- */
 301:Driver/timer_driver.c **** static int prv_dma_open(TIM_TypeDef *TIMx, Timer_Ch_t ch,
 302:Driver/timer_driver.c ****                         uint16_t *buf, uint16_t len,
 303:Driver/timer_driver.c ****                         uint32_t dir) /* DMA_DIR_PeripheralSRC / DST */
 304:Driver/timer_driver.c **** {
 305:Driver/timer_driver.c ****     DMA_InitTypeDef dma;
ARM GAS  C:\Users\ADMIN\AppData\Local\Temp\ccIuv89a.s 			page 19


 306:Driver/timer_driver.c ****     int tidx = prv_tim_idx(TIMx);
 307:Driver/timer_driver.c ****     const prv_dma_map_t *m;
 308:Driver/timer_driver.c **** 
 309:Driver/timer_driver.c ****     if (tidx < 0 || !buf || !len)
 310:Driver/timer_driver.c ****         return TIMER_EINVAL;
 311:Driver/timer_driver.c **** 
 312:Driver/timer_driver.c ****     m = &dma_map[tidx][ch];
 313:Driver/timer_driver.c ****     if (!m->ch)
 314:Driver/timer_driver.c ****         return TIMER_ENOTSUP; /* TIM4_CH4 không có DMA */
 315:Driver/timer_driver.c **** 
 316:Driver/timer_driver.c ****     RCC_AHBPeriphClockCmd(RCC_AHBPeriph_DMA1, ENABLE);
 317:Driver/timer_driver.c **** 
 318:Driver/timer_driver.c ****     DMA_DeInit(m->ch);
 319:Driver/timer_driver.c ****     dma.DMA_PeripheralBaseAddr = prv_ccr_addr(TIMx, ch);
 320:Driver/timer_driver.c ****     dma.DMA_MemoryBaseAddr = (uint32_t)buf;
 321:Driver/timer_driver.c ****     dma.DMA_DIR = dir;
 322:Driver/timer_driver.c ****     dma.DMA_BufferSize = len;
 323:Driver/timer_driver.c ****     dma.DMA_PeripheralInc = DMA_PeripheralInc_Disable;
 324:Driver/timer_driver.c ****     dma.DMA_MemoryInc = DMA_MemoryInc_Enable;
 325:Driver/timer_driver.c ****     dma.DMA_PeripheralDataSize = DMA_PeripheralDataSize_HalfWord;
 326:Driver/timer_driver.c ****     dma.DMA_MemoryDataSize = DMA_MemoryDataSize_HalfWord;
 327:Driver/timer_driver.c ****     dma.DMA_Mode = DMA_Mode_Circular;
 328:Driver/timer_driver.c ****     dma.DMA_Priority = DMA_Priority_High;
 329:Driver/timer_driver.c ****     dma.DMA_M2M = DMA_M2M_Disable;
 330:Driver/timer_driver.c ****     DMA_Init(m->ch, &dma);
 331:Driver/timer_driver.c **** 
 332:Driver/timer_driver.c ****     /* Bật TC interrupt để gọi dma_cb */
 333:Driver/timer_driver.c ****     DMA_ITConfig(m->ch, DMA_IT_TC, ENABLE);
 334:Driver/timer_driver.c **** 
 335:Driver/timer_driver.c ****     /* Bật NVIC cho DMA channel */
 336:Driver/timer_driver.c ****     NVIC_SetPriority(m->irqn,
 337:Driver/timer_driver.c ****                      NVIC_EncodePriority(NVIC_GetPriorityGrouping(), 2, 0));
 338:Driver/timer_driver.c ****     NVIC_EnableIRQ(m->irqn);
 339:Driver/timer_driver.c **** 
 340:Driver/timer_driver.c ****     /* Kết nối TIM -> DMA */
 341:Driver/timer_driver.c ****     TIM_DMACmd(TIMx, prv_dma_src(ch), ENABLE);
 342:Driver/timer_driver.c ****     DMA_Cmd(m->ch, ENABLE);
 343:Driver/timer_driver.c **** 
 344:Driver/timer_driver.c ****     /* Lưu DMA channel vào table để timer_dma_process() tra ngược */
 345:Driver/timer_driver.c ****     dma_ch_table[tidx][ch] = m->ch;
 346:Driver/timer_driver.c **** 
 347:Driver/timer_driver.c ****     return TIMER_OK;
 348:Driver/timer_driver.c **** }
 349:Driver/timer_driver.c **** 
 350:Driver/timer_driver.c **** static void prv_dma_close(TIM_TypeDef *TIMx, Timer_Ch_t ch)
 351:Driver/timer_driver.c **** {
 352:Driver/timer_driver.c ****     int tidx = prv_tim_idx(TIMx);
 353:Driver/timer_driver.c ****     const prv_dma_map_t *m;
 354:Driver/timer_driver.c **** 
 355:Driver/timer_driver.c ****     if (tidx < 0)
 356:Driver/timer_driver.c ****         return;
 357:Driver/timer_driver.c **** 
 358:Driver/timer_driver.c ****     m = &dma_map[tidx][ch];
 359:Driver/timer_driver.c ****     if (!m->ch)
 360:Driver/timer_driver.c ****         return;
 361:Driver/timer_driver.c **** 
 362:Driver/timer_driver.c ****     TIM_DMACmd(TIMx, prv_dma_src(ch), DISABLE);
ARM GAS  C:\Users\ADMIN\AppData\Local\Temp\ccIuv89a.s 			page 20


 363:Driver/timer_driver.c ****     DMA_ITConfig(m->ch, DMA_IT_TC, DISABLE);
 364:Driver/timer_driver.c ****     DMA_Cmd(m->ch, DISABLE);
 365:Driver/timer_driver.c ****     NVIC_DisableIRQ(m->irqn);
 366:Driver/timer_driver.c ****     DMA_DeInit(m->ch);
 367:Driver/timer_driver.c **** 
 368:Driver/timer_driver.c ****     dma_ch_table[tidx][ch] = 0;
 369:Driver/timer_driver.c **** }
 370:Driver/timer_driver.c **** 
 371:Driver/timer_driver.c **** /* ----------------------------------------------------------------
 372:Driver/timer_driver.c ****  *  OC init helper
 373:Driver/timer_driver.c ****  * ---------------------------------------------------------------- */
 374:Driver/timer_driver.c **** static void prv_oc_init(TIM_TypeDef *TIMx, Timer_Ch_t ch,
 375:Driver/timer_driver.c ****                         TIM_OCInitTypeDef *oc)
 376:Driver/timer_driver.c **** {
 377:Driver/timer_driver.c ****     switch (ch)
 378:Driver/timer_driver.c ****     {
 379:Driver/timer_driver.c ****     case TIMER_CH1:
 380:Driver/timer_driver.c ****         TIM_OC1Init(TIMx, oc);
 381:Driver/timer_driver.c ****         TIM_OC1PreloadConfig(TIMx, TIM_OCPreload_Enable);
 382:Driver/timer_driver.c ****         break;
 383:Driver/timer_driver.c ****     case TIMER_CH2:
 384:Driver/timer_driver.c ****         TIM_OC2Init(TIMx, oc);
 385:Driver/timer_driver.c ****         TIM_OC2PreloadConfig(TIMx, TIM_OCPreload_Enable);
 386:Driver/timer_driver.c ****         break;
 387:Driver/timer_driver.c ****     case TIMER_CH3:
 388:Driver/timer_driver.c ****         TIM_OC3Init(TIMx, oc);
 389:Driver/timer_driver.c ****         TIM_OC3PreloadConfig(TIMx, TIM_OCPreload_Enable);
 390:Driver/timer_driver.c ****         break;
 391:Driver/timer_driver.c ****     case TIMER_CH4:
 392:Driver/timer_driver.c ****         TIM_OC4Init(TIMx, oc);
 393:Driver/timer_driver.c ****         TIM_OC4PreloadConfig(TIMx, TIM_OCPreload_Enable);
 394:Driver/timer_driver.c ****         break;
 395:Driver/timer_driver.c ****     }
 396:Driver/timer_driver.c **** }
 397:Driver/timer_driver.c **** 
 398:Driver/timer_driver.c **** /* ================================================================
 399:Driver/timer_driver.c ****  *  PRIVATE - MODE INIT
 400:Driver/timer_driver.c ****  * ================================================================ */
 401:Driver/timer_driver.c **** static int prv_timebase_init(TIM_TypeDef *TIMx,
 402:Driver/timer_driver.c ****                              const Timer_Base_Cfg_t *cfg)
 403:Driver/timer_driver.c **** {
 691              		.loc 1 403 1 is_stmt 1 view -0
 692              		.cfi_startproc
 693              		@ args = 0, pretend = 0, frame = 16
 694              		@ frame_needed = 0, uses_anonymous_args = 0
 404:Driver/timer_driver.c ****     TIM_TimeBaseInitTypeDef tb;
 695              		.loc 1 404 5 view .LVU166
 405:Driver/timer_driver.c **** 
 406:Driver/timer_driver.c ****     /* FIX #4: guard underflow — prescaler/period = 0 sẽ wrap thành 0xFFFF */
 407:Driver/timer_driver.c ****     if (cfg->prescaler == 0 || cfg->period == 0)
 696              		.loc 1 407 5 view .LVU167
 697              		.loc 1 407 12 is_stmt 0 view .LVU168
 698 0000 0B88     		ldrh	r3, [r1]
 699              		.loc 1 407 8 view .LVU169
 700 0002 0BB3     		cbz	r3, .L75
 403:Driver/timer_driver.c ****     TIM_TimeBaseInitTypeDef tb;
 701              		.loc 1 403 1 discriminator 1 view .LVU170
ARM GAS  C:\Users\ADMIN\AppData\Local\Temp\ccIuv89a.s 			page 21


 702 0004 30B5     		push	{r4, r5, lr}
 703              	.LCFI7:
 704              		.cfi_def_cfa_offset 12
 705              		.cfi_offset 4, -12
 706              		.cfi_offset 5, -8
 707              		.cfi_offset 14, -4
 708 0006 85B0     		sub	sp, sp, #20
 709              	.LCFI8:
 710              		.cfi_def_cfa_offset 32
 711 0008 0546     		mov	r5, r0
 712 000a 0C46     		mov	r4, r1
 713              		.loc 1 407 35 discriminator 1 view .LVU171
 714 000c 4B68     		ldr	r3, [r1, #4]
 715              		.loc 1 407 29 discriminator 1 view .LVU172
 716 000e F3B1     		cbz	r3, .L76
 408:Driver/timer_driver.c ****         return TIMER_EINVAL;
 409:Driver/timer_driver.c **** 
 410:Driver/timer_driver.c ****     TIM_TimeBaseStructInit(&tb);
 717              		.loc 1 410 5 is_stmt 1 view .LVU173
 718 0010 01A8     		add	r0, sp, #4
 719              	.LVL79:
 720              		.loc 1 410 5 is_stmt 0 view .LVU174
 721 0012 FFF7FEFF 		bl	TIM_TimeBaseStructInit
 722              	.LVL80:
 411:Driver/timer_driver.c ****     tb.TIM_Prescaler = cfg->prescaler - 1;
 723              		.loc 1 411 5 is_stmt 1 view .LVU175
 724              		.loc 1 411 27 is_stmt 0 view .LVU176
 725 0016 2388     		ldrh	r3, [r4]
 726              		.loc 1 411 39 view .LVU177
 727 0018 013B     		subs	r3, r3, #1
 728              		.loc 1 411 22 view .LVU178
 729 001a ADF80430 		strh	r3, [sp, #4]	@ movhi
 412:Driver/timer_driver.c ****     tb.TIM_Period = cfg->period - 1;
 730              		.loc 1 412 5 is_stmt 1 view .LVU179
 731              		.loc 1 412 24 is_stmt 0 view .LVU180
 732 001e 6368     		ldr	r3, [r4, #4]
 733              		.loc 1 412 33 view .LVU181
 734 0020 013B     		subs	r3, r3, #1
 735              		.loc 1 412 19 view .LVU182
 736 0022 ADF80830 		strh	r3, [sp, #8]	@ movhi
 413:Driver/timer_driver.c ****     tb.TIM_ClockDivision = TIM_CKD_DIV1;
 737              		.loc 1 413 5 is_stmt 1 view .LVU183
 738              		.loc 1 413 26 is_stmt 0 view .LVU184
 739 0026 0024     		movs	r4, #0
 740              	.LVL81:
 741              		.loc 1 413 26 view .LVU185
 742 0028 ADF80A40 		strh	r4, [sp, #10]	@ movhi
 414:Driver/timer_driver.c ****     tb.TIM_CounterMode = TIM_CounterMode_Up;
 743              		.loc 1 414 5 is_stmt 1 view .LVU186
 744              		.loc 1 414 24 is_stmt 0 view .LVU187
 745 002c ADF80640 		strh	r4, [sp, #6]	@ movhi
 415:Driver/timer_driver.c ****     TIM_TimeBaseInit(TIMx, &tb);
 746              		.loc 1 415 5 is_stmt 1 view .LVU188
 747 0030 01A9     		add	r1, sp, #4
 748 0032 2846     		mov	r0, r5
 749 0034 FFF7FEFF 		bl	TIM_TimeBaseInit
 750              	.LVL82:
ARM GAS  C:\Users\ADMIN\AppData\Local\Temp\ccIuv89a.s 			page 22


 416:Driver/timer_driver.c ****     TIM_ITConfig(TIMx, TIM_IT_Update, ENABLE);
 751              		.loc 1 416 5 view .LVU189
 752 0038 0122     		movs	r2, #1
 753 003a 1146     		mov	r1, r2
 754 003c 2846     		mov	r0, r5
 755 003e FFF7FEFF 		bl	TIM_ITConfig
 756              	.LVL83:
 417:Driver/timer_driver.c ****     return TIMER_OK;
 757              		.loc 1 417 5 view .LVU190
 758              		.loc 1 417 12 is_stmt 0 view .LVU191
 759 0042 2046     		mov	r0, r4
 760              	.L73:
 418:Driver/timer_driver.c **** }
 761              		.loc 1 418 1 view .LVU192
 762 0044 05B0     		add	sp, sp, #20
 763              	.LCFI9:
 764              		.cfi_def_cfa_offset 12
 765              		@ sp needed
 766 0046 30BD     		pop	{r4, r5, pc}
 767              	.LVL84:
 768              	.L75:
 769              	.LCFI10:
 770              		.cfi_def_cfa_offset 0
 771              		.cfi_restore 4
 772              		.cfi_restore 5
 773              		.cfi_restore 14
 408:Driver/timer_driver.c **** 
 774              		.loc 1 408 16 view .LVU193
 775 0048 4FF0FF30 		mov	r0, #-1
 776              	.LVL85:
 777              		.loc 1 418 1 view .LVU194
 778 004c 7047     		bx	lr
 779              	.LVL86:
 780              	.L76:
 781              	.LCFI11:
 782              		.cfi_def_cfa_offset 32
 783              		.cfi_offset 4, -12
 784              		.cfi_offset 5, -8
 785              		.cfi_offset 14, -4
 408:Driver/timer_driver.c **** 
 786              		.loc 1 408 16 view .LVU195
 787 004e 4FF0FF30 		mov	r0, #-1
 788              	.LVL87:
 408:Driver/timer_driver.c **** 
 789              		.loc 1 408 16 view .LVU196
 790 0052 F7E7     		b	.L73
 791              		.cfi_endproc
 792              	.LFE80:
 794              		.section	.text.prv_oc_init,"ax",%progbits
 795              		.align	1
 796              		.syntax unified
 797              		.thumb
 798              		.thumb_func
 800              	prv_oc_init:
 801              	.LVL88:
 802              	.LFB79:
 376:Driver/timer_driver.c ****     switch (ch)
ARM GAS  C:\Users\ADMIN\AppData\Local\Temp\ccIuv89a.s 			page 23


 803              		.loc 1 376 1 is_stmt 1 view -0
 804              		.cfi_startproc
 805              		@ args = 0, pretend = 0, frame = 0
 806              		@ frame_needed = 0, uses_anonymous_args = 0
 376:Driver/timer_driver.c ****     switch (ch)
 807              		.loc 1 376 1 is_stmt 0 view .LVU198
 808 0000 10B5     		push	{r4, lr}
 809              	.LCFI12:
 810              		.cfi_def_cfa_offset 8
 811              		.cfi_offset 4, -8
 812              		.cfi_offset 14, -4
 813 0002 0446     		mov	r4, r0
 377:Driver/timer_driver.c ****     {
 814              		.loc 1 377 5 is_stmt 1 view .LVU199
 815 0004 0329     		cmp	r1, #3
 816 0006 0AD8     		bhi	.L81
 817 0008 DFE801F0 		tbb	[pc, r1]
 818              	.L84:
 819 000c 02       		.byte	(.L87-.L84)/2
 820 000d 0A       		.byte	(.L86-.L84)/2
 821 000e 12       		.byte	(.L85-.L84)/2
 822 000f 1A       		.byte	(.L83-.L84)/2
 823              		.p2align 1
 824              	.L87:
 380:Driver/timer_driver.c ****         TIM_OC1PreloadConfig(TIMx, TIM_OCPreload_Enable);
 825              		.loc 1 380 9 view .LVU200
 826 0010 1146     		mov	r1, r2
 827              	.LVL89:
 380:Driver/timer_driver.c ****         TIM_OC1PreloadConfig(TIMx, TIM_OCPreload_Enable);
 828              		.loc 1 380 9 is_stmt 0 view .LVU201
 829 0012 FFF7FEFF 		bl	TIM_OC1Init
 830              	.LVL90:
 381:Driver/timer_driver.c ****         break;
 831              		.loc 1 381 9 is_stmt 1 view .LVU202
 832 0016 0821     		movs	r1, #8
 833 0018 2046     		mov	r0, r4
 834 001a FFF7FEFF 		bl	TIM_OC1PreloadConfig
 835              	.LVL91:
 382:Driver/timer_driver.c ****     case TIMER_CH2:
 836              		.loc 1 382 9 view .LVU203
 837              	.L81:
 396:Driver/timer_driver.c **** 
 838              		.loc 1 396 1 is_stmt 0 view .LVU204
 839 001e 10BD     		pop	{r4, pc}
 840              	.LVL92:
 841              	.L86:
 384:Driver/timer_driver.c ****         TIM_OC2PreloadConfig(TIMx, TIM_OCPreload_Enable);
 842              		.loc 1 384 9 is_stmt 1 view .LVU205
 843 0020 1146     		mov	r1, r2
 844              	.LVL93:
 384:Driver/timer_driver.c ****         TIM_OC2PreloadConfig(TIMx, TIM_OCPreload_Enable);
 845              		.loc 1 384 9 is_stmt 0 view .LVU206
 846 0022 FFF7FEFF 		bl	TIM_OC2Init
 847              	.LVL94:
 385:Driver/timer_driver.c ****         break;
 848              		.loc 1 385 9 is_stmt 1 view .LVU207
 849 0026 0821     		movs	r1, #8
ARM GAS  C:\Users\ADMIN\AppData\Local\Temp\ccIuv89a.s 			page 24


 850 0028 2046     		mov	r0, r4
 851 002a FFF7FEFF 		bl	TIM_OC2PreloadConfig
 852              	.LVL95:
 386:Driver/timer_driver.c ****     case TIMER_CH3:
 853              		.loc 1 386 9 view .LVU208
 854 002e F6E7     		b	.L81
 855              	.LVL96:
 856              	.L85:
 388:Driver/timer_driver.c ****         TIM_OC3PreloadConfig(TIMx, TIM_OCPreload_Enable);
 857              		.loc 1 388 9 view .LVU209
 858 0030 1146     		mov	r1, r2
 859              	.LVL97:
 388:Driver/timer_driver.c ****         TIM_OC3PreloadConfig(TIMx, TIM_OCPreload_Enable);
 860              		.loc 1 388 9 is_stmt 0 view .LVU210
 861 0032 FFF7FEFF 		bl	TIM_OC3Init
 862              	.LVL98:
 389:Driver/timer_driver.c ****         break;
 863              		.loc 1 389 9 is_stmt 1 view .LVU211
 864 0036 0821     		movs	r1, #8
 865 0038 2046     		mov	r0, r4
 866 003a FFF7FEFF 		bl	TIM_OC3PreloadConfig
 867              	.LVL99:
 390:Driver/timer_driver.c ****     case TIMER_CH4:
 868              		.loc 1 390 9 view .LVU212
 869 003e EEE7     		b	.L81
 870              	.LVL100:
 871              	.L83:
 392:Driver/timer_driver.c ****         TIM_OC4PreloadConfig(TIMx, TIM_OCPreload_Enable);
 872              		.loc 1 392 9 view .LVU213
 873 0040 1146     		mov	r1, r2
 874              	.LVL101:
 392:Driver/timer_driver.c ****         TIM_OC4PreloadConfig(TIMx, TIM_OCPreload_Enable);
 875              		.loc 1 392 9 is_stmt 0 view .LVU214
 876 0042 FFF7FEFF 		bl	TIM_OC4Init
 877              	.LVL102:
 393:Driver/timer_driver.c ****         break;
 878              		.loc 1 393 9 is_stmt 1 view .LVU215
 879 0046 0821     		movs	r1, #8
 880 0048 2046     		mov	r0, r4
 881 004a FFF7FEFF 		bl	TIM_OC4PreloadConfig
 882              	.LVL103:
 394:Driver/timer_driver.c ****     }
 883              		.loc 1 394 9 view .LVU216
 396:Driver/timer_driver.c **** 
 884              		.loc 1 396 1 is_stmt 0 view .LVU217
 885 004e E6E7     		b	.L81
 886              		.cfi_endproc
 887              	.LFE79:
 889              		.section	.text.prv_get_ccr,"ax",%progbits
 890              		.align	1
 891              		.syntax unified
 892              		.thumb
 893              		.thumb_func
 895              	prv_get_ccr:
 896              	.LVL104:
 897              	.LFB73:
 189:Driver/timer_driver.c ****     switch (ch)
ARM GAS  C:\Users\ADMIN\AppData\Local\Temp\ccIuv89a.s 			page 25


 898              		.loc 1 189 1 is_stmt 1 view -0
 899              		.cfi_startproc
 900              		@ args = 0, pretend = 0, frame = 0
 901              		@ frame_needed = 0, uses_anonymous_args = 0
 189:Driver/timer_driver.c ****     switch (ch)
 902              		.loc 1 189 1 is_stmt 0 view .LVU219
 903 0000 08B5     		push	{r3, lr}
 904              	.LCFI13:
 905              		.cfi_def_cfa_offset 8
 906              		.cfi_offset 3, -8
 907              		.cfi_offset 14, -4
 190:Driver/timer_driver.c ****     {
 908              		.loc 1 190 5 is_stmt 1 view .LVU220
 909 0002 0329     		cmp	r1, #3
 910 0004 0FD8     		bhi	.L96
 911 0006 DFE801F0 		tbb	[pc, r1]
 912              	.L92:
 913 000a 02       		.byte	(.L95-.L92)/2
 914 000b 05       		.byte	(.L94-.L92)/2
 915 000c 08       		.byte	(.L93-.L92)/2
 916 000d 0B       		.byte	(.L91-.L92)/2
 917              		.p2align 1
 918              	.L95:
 193:Driver/timer_driver.c ****     case TIMER_CH2:
 919              		.loc 1 193 9 view .LVU221
 193:Driver/timer_driver.c ****     case TIMER_CH2:
 920              		.loc 1 193 16 is_stmt 0 view .LVU222
 921 000e FFF7FEFF 		bl	TIM_GetCapture1
 922              	.LVL105:
 923              	.L89:
 203:Driver/timer_driver.c **** 
 924              		.loc 1 203 1 view .LVU223
 925 0012 08BD     		pop	{r3, pc}
 926              	.LVL106:
 927              	.L94:
 195:Driver/timer_driver.c ****     case TIMER_CH3:
 928              		.loc 1 195 9 is_stmt 1 view .LVU224
 195:Driver/timer_driver.c ****     case TIMER_CH3:
 929              		.loc 1 195 16 is_stmt 0 view .LVU225
 930 0014 FFF7FEFF 		bl	TIM_GetCapture2
 931              	.LVL107:
 195:Driver/timer_driver.c ****     case TIMER_CH3:
 932              		.loc 1 195 16 view .LVU226
 933 0018 FBE7     		b	.L89
 934              	.LVL108:
 935              	.L93:
 197:Driver/timer_driver.c ****     case TIMER_CH4:
 936              		.loc 1 197 9 is_stmt 1 view .LVU227
 197:Driver/timer_driver.c ****     case TIMER_CH4:
 937              		.loc 1 197 16 is_stmt 0 view .LVU228
 938 001a FFF7FEFF 		bl	TIM_GetCapture3
 939              	.LVL109:
 197:Driver/timer_driver.c ****     case TIMER_CH4:
 940              		.loc 1 197 16 view .LVU229
 941 001e F8E7     		b	.L89
 942              	.LVL110:
 943              	.L91:
ARM GAS  C:\Users\ADMIN\AppData\Local\Temp\ccIuv89a.s 			page 26


 199:Driver/timer_driver.c ****     default:
 944              		.loc 1 199 9 is_stmt 1 view .LVU230
 199:Driver/timer_driver.c ****     default:
 945              		.loc 1 199 16 is_stmt 0 view .LVU231
 946 0020 FFF7FEFF 		bl	TIM_GetCapture4
 947              	.LVL111:
 199:Driver/timer_driver.c ****     default:
 948              		.loc 1 199 16 view .LVU232
 949 0024 F5E7     		b	.L89
 950              	.LVL112:
 951              	.L96:
 190:Driver/timer_driver.c ****     {
 952              		.loc 1 190 5 view .LVU233
 953 0026 0020     		movs	r0, #0
 954              	.LVL113:
 190:Driver/timer_driver.c ****     {
 955              		.loc 1 190 5 view .LVU234
 956 0028 F3E7     		b	.L89
 957              		.cfi_endproc
 958              	.LFE73:
 960              		.section	.text.prv_set_ccr,"ax",%progbits
 961              		.align	1
 962              		.syntax unified
 963              		.thumb
 964              		.thumb_func
 966              	prv_set_ccr:
 967              	.LVL114:
 968              	.LFB74:
 206:Driver/timer_driver.c ****     switch (ch)
 969              		.loc 1 206 1 is_stmt 1 view -0
 970              		.cfi_startproc
 971              		@ args = 0, pretend = 0, frame = 0
 972              		@ frame_needed = 0, uses_anonymous_args = 0
 206:Driver/timer_driver.c ****     switch (ch)
 973              		.loc 1 206 1 is_stmt 0 view .LVU236
 974 0000 08B5     		push	{r3, lr}
 975              	.LCFI14:
 976              		.cfi_def_cfa_offset 8
 977              		.cfi_offset 3, -8
 978              		.cfi_offset 14, -4
 207:Driver/timer_driver.c ****     {
 979              		.loc 1 207 5 is_stmt 1 view .LVU237
 980 0002 0329     		cmp	r1, #3
 981 0004 06D8     		bhi	.L98
 982 0006 DFE801F0 		tbb	[pc, r1]
 983              	.L101:
 984 000a 02       		.byte	(.L104-.L101)/2
 985 000b 06       		.byte	(.L103-.L101)/2
 986 000c 0A       		.byte	(.L102-.L101)/2
 987 000d 0E       		.byte	(.L100-.L101)/2
 988              		.p2align 1
 989              	.L104:
 210:Driver/timer_driver.c ****         break;
 990              		.loc 1 210 9 view .LVU238
 991 000e 1146     		mov	r1, r2
 992              	.LVL115:
 210:Driver/timer_driver.c ****         break;
ARM GAS  C:\Users\ADMIN\AppData\Local\Temp\ccIuv89a.s 			page 27


 993              		.loc 1 210 9 is_stmt 0 view .LVU239
 994 0010 FFF7FEFF 		bl	TIM_SetCompare1
 995              	.LVL116:
 211:Driver/timer_driver.c ****     case TIMER_CH2:
 996              		.loc 1 211 9 is_stmt 1 view .LVU240
 997              	.L98:
 222:Driver/timer_driver.c **** 
 998              		.loc 1 222 1 is_stmt 0 view .LVU241
 999 0014 08BD     		pop	{r3, pc}
 1000              	.LVL117:
 1001              	.L103:
 213:Driver/timer_driver.c ****         break;
 1002              		.loc 1 213 9 is_stmt 1 view .LVU242
 1003 0016 1146     		mov	r1, r2
 1004              	.LVL118:
 213:Driver/timer_driver.c ****         break;
 1005              		.loc 1 213 9 is_stmt 0 view .LVU243
 1006 0018 FFF7FEFF 		bl	TIM_SetCompare2
 1007              	.LVL119:
 214:Driver/timer_driver.c ****     case TIMER_CH3:
 1008              		.loc 1 214 9 is_stmt 1 view .LVU244
 1009 001c FAE7     		b	.L98
 1010              	.LVL120:
 1011              	.L102:
 216:Driver/timer_driver.c ****         break;
 1012              		.loc 1 216 9 view .LVU245
 1013 001e 1146     		mov	r1, r2
 1014              	.LVL121:
 216:Driver/timer_driver.c ****         break;
 1015              		.loc 1 216 9 is_stmt 0 view .LVU246
 1016 0020 FFF7FEFF 		bl	TIM_SetCompare3
 1017              	.LVL122:
 217:Driver/timer_driver.c ****     case TIMER_CH4:
 1018              		.loc 1 217 9 is_stmt 1 view .LVU247
 1019 0024 F6E7     		b	.L98
 1020              	.LVL123:
 1021              	.L100:
 219:Driver/timer_driver.c ****         break;
 1022              		.loc 1 219 9 view .LVU248
 1023 0026 1146     		mov	r1, r2
 1024              	.LVL124:
 219:Driver/timer_driver.c ****         break;
 1025              		.loc 1 219 9 is_stmt 0 view .LVU249
 1026 0028 FFF7FEFF 		bl	TIM_SetCompare4
 1027              	.LVL125:
 220:Driver/timer_driver.c ****     }
 1028              		.loc 1 220 9 is_stmt 1 view .LVU250
 222:Driver/timer_driver.c **** 
 1029              		.loc 1 222 1 is_stmt 0 view .LVU251
 1030 002c F2E7     		b	.L98
 1031              		.cfi_endproc
 1032              	.LFE74:
 1034              		.section	.text.prv_dma_close,"ax",%progbits
 1035              		.align	1
 1036              		.syntax unified
 1037              		.thumb
 1038              		.thumb_func
ARM GAS  C:\Users\ADMIN\AppData\Local\Temp\ccIuv89a.s 			page 28


 1040              	prv_dma_close:
 1041              	.LVL126:
 1042              	.LFB78:
 351:Driver/timer_driver.c ****     int tidx = prv_tim_idx(TIMx);
 1043              		.loc 1 351 1 is_stmt 1 view -0
 1044              		.cfi_startproc
 1045              		@ args = 0, pretend = 0, frame = 0
 1046              		@ frame_needed = 0, uses_anonymous_args = 0
 351:Driver/timer_driver.c ****     int tidx = prv_tim_idx(TIMx);
 1047              		.loc 1 351 1 is_stmt 0 view .LVU253
 1048 0000 F8B5     		push	{r3, r4, r5, r6, r7, lr}
 1049              	.LCFI15:
 1050              		.cfi_def_cfa_offset 24
 1051              		.cfi_offset 3, -24
 1052              		.cfi_offset 4, -20
 1053              		.cfi_offset 5, -16
 1054              		.cfi_offset 6, -12
 1055              		.cfi_offset 7, -8
 1056              		.cfi_offset 14, -4
 1057 0002 0746     		mov	r7, r0
 1058 0004 0C46     		mov	r4, r1
 352:Driver/timer_driver.c ****     const prv_dma_map_t *m;
 1059              		.loc 1 352 5 is_stmt 1 view .LVU254
 352:Driver/timer_driver.c ****     const prv_dma_map_t *m;
 1060              		.loc 1 352 16 is_stmt 0 view .LVU255
 1061 0006 FFF7FEFF 		bl	prv_tim_idx
 1062              	.LVL127:
 353:Driver/timer_driver.c **** 
 1063              		.loc 1 353 5 is_stmt 1 view .LVU256
 355:Driver/timer_driver.c ****         return;
 1064              		.loc 1 355 5 view .LVU257
 355:Driver/timer_driver.c ****         return;
 1065              		.loc 1 355 8 is_stmt 0 view .LVU258
 1066 000a 051E     		subs	r5, r0, #0
 1067 000c 35DB     		blt	.L106
 358:Driver/timer_driver.c ****     if (!m->ch)
 1068              		.loc 1 358 5 is_stmt 1 view .LVU259
 1069              	.LVL128:
 359:Driver/timer_driver.c ****         return;
 1070              		.loc 1 359 5 view .LVU260
 359:Driver/timer_driver.c ****         return;
 1071              		.loc 1 359 11 is_stmt 0 view .LVU261
 1072 000e 04EB8503 		add	r3, r4, r5, lsl #2
 1073 0012 1B01     		lsls	r3, r3, #4
 1074 0014 194A     		ldr	r2, .L110
 1075 0016 D658     		ldr	r6, [r2, r3]
 359:Driver/timer_driver.c ****         return;
 1076              		.loc 1 359 8 view .LVU262
 1077 0018 7EB3     		cbz	r6, .L106
 362:Driver/timer_driver.c ****     DMA_ITConfig(m->ch, DMA_IT_TC, DISABLE);
 1078              		.loc 1 362 5 is_stmt 1 view .LVU263
 1079 001a 2046     		mov	r0, r4
 1080              	.LVL129:
 362:Driver/timer_driver.c ****     DMA_ITConfig(m->ch, DMA_IT_TC, DISABLE);
 1081              		.loc 1 362 5 is_stmt 0 view .LVU264
 1082 001c FFF7FEFF 		bl	prv_dma_src
 1083              	.LVL130:
ARM GAS  C:\Users\ADMIN\AppData\Local\Temp\ccIuv89a.s 			page 29


 1084 0020 0146     		mov	r1, r0
 1085 0022 0022     		movs	r2, #0
 1086 0024 3846     		mov	r0, r7
 1087 0026 FFF7FEFF 		bl	TIM_DMACmd
 1088              	.LVL131:
 363:Driver/timer_driver.c ****     DMA_Cmd(m->ch, DISABLE);
 1089              		.loc 1 363 5 is_stmt 1 view .LVU265
 1090 002a 0022     		movs	r2, #0
 1091 002c 0221     		movs	r1, #2
 1092 002e 3046     		mov	r0, r6
 1093 0030 FFF7FEFF 		bl	DMA_ITConfig
 1094              	.LVL132:
 364:Driver/timer_driver.c ****     NVIC_DisableIRQ(m->irqn);
 1095              		.loc 1 364 5 view .LVU266
 1096 0034 0021     		movs	r1, #0
 1097 0036 3046     		mov	r0, r6
 1098 0038 FFF7FEFF 		bl	DMA_Cmd
 1099              	.LVL133:
 365:Driver/timer_driver.c ****     DMA_DeInit(m->ch);
 1100              		.loc 1 365 5 view .LVU267
 1101 003c 04EB8503 		add	r3, r4, r5, lsl #2
 1102 0040 0E4A     		ldr	r2, .L110
 1103 0042 02EB0313 		add	r3, r2, r3, lsl #4
 1104 0046 93F90C30 		ldrsb	r3, [r3, #12]
 1105              	.LVL134:
 1106              	.LBB28:
 1107              	.LBI28:
 1108              		.file 2 "Libraries/CMSIS/Include/core_cm3.h"
   1:Libraries/CMSIS/Include/core_cm3.h **** /**************************************************************************//**
   2:Libraries/CMSIS/Include/core_cm3.h ****  * @file     core_cm3.h
   3:Libraries/CMSIS/Include/core_cm3.h ****  * @brief    CMSIS Cortex-M3 Core Peripheral Access Layer Header File
   4:Libraries/CMSIS/Include/core_cm3.h ****  * @version  V5.0.8
   5:Libraries/CMSIS/Include/core_cm3.h ****  * @date     04. June 2018
   6:Libraries/CMSIS/Include/core_cm3.h ****  ******************************************************************************/
   7:Libraries/CMSIS/Include/core_cm3.h **** /*
   8:Libraries/CMSIS/Include/core_cm3.h ****  * Copyright (c) 2009-2018 Arm Limited. All rights reserved.
   9:Libraries/CMSIS/Include/core_cm3.h ****  *
  10:Libraries/CMSIS/Include/core_cm3.h ****  * SPDX-License-Identifier: Apache-2.0
  11:Libraries/CMSIS/Include/core_cm3.h ****  *
  12:Libraries/CMSIS/Include/core_cm3.h ****  * Licensed under the Apache License, Version 2.0 (the License); you may
  13:Libraries/CMSIS/Include/core_cm3.h ****  * not use this file except in compliance with the License.
  14:Libraries/CMSIS/Include/core_cm3.h ****  * You may obtain a copy of the License at
  15:Libraries/CMSIS/Include/core_cm3.h ****  *
  16:Libraries/CMSIS/Include/core_cm3.h ****  * www.apache.org/licenses/LICENSE-2.0
  17:Libraries/CMSIS/Include/core_cm3.h ****  *
  18:Libraries/CMSIS/Include/core_cm3.h ****  * Unless required by applicable law or agreed to in writing, software
  19:Libraries/CMSIS/Include/core_cm3.h ****  * distributed under the License is distributed on an AS IS BASIS, WITHOUT
  20:Libraries/CMSIS/Include/core_cm3.h ****  * WARRANTIES OR CONDITIONS OF ANY KIND, either express or implied.
  21:Libraries/CMSIS/Include/core_cm3.h ****  * See the License for the specific language governing permissions and
  22:Libraries/CMSIS/Include/core_cm3.h ****  * limitations under the License.
  23:Libraries/CMSIS/Include/core_cm3.h ****  */
  24:Libraries/CMSIS/Include/core_cm3.h **** 
  25:Libraries/CMSIS/Include/core_cm3.h **** #if   defined ( __ICCARM__ )
  26:Libraries/CMSIS/Include/core_cm3.h ****   #pragma system_include         /* treat file as system include file for MISRA check */
  27:Libraries/CMSIS/Include/core_cm3.h **** #elif defined (__clang__)
  28:Libraries/CMSIS/Include/core_cm3.h ****   #pragma clang system_header   /* treat file as system include file */
  29:Libraries/CMSIS/Include/core_cm3.h **** #endif
ARM GAS  C:\Users\ADMIN\AppData\Local\Temp\ccIuv89a.s 			page 30


  30:Libraries/CMSIS/Include/core_cm3.h **** 
  31:Libraries/CMSIS/Include/core_cm3.h **** #ifndef __CORE_CM3_H_GENERIC
  32:Libraries/CMSIS/Include/core_cm3.h **** #define __CORE_CM3_H_GENERIC
  33:Libraries/CMSIS/Include/core_cm3.h **** 
  34:Libraries/CMSIS/Include/core_cm3.h **** #include <stdint.h>
  35:Libraries/CMSIS/Include/core_cm3.h **** 
  36:Libraries/CMSIS/Include/core_cm3.h **** #ifdef __cplusplus
  37:Libraries/CMSIS/Include/core_cm3.h ****  extern "C" {
  38:Libraries/CMSIS/Include/core_cm3.h **** #endif
  39:Libraries/CMSIS/Include/core_cm3.h **** 
  40:Libraries/CMSIS/Include/core_cm3.h **** /**
  41:Libraries/CMSIS/Include/core_cm3.h ****   \page CMSIS_MISRA_Exceptions  MISRA-C:2004 Compliance Exceptions
  42:Libraries/CMSIS/Include/core_cm3.h ****   CMSIS violates the following MISRA-C:2004 rules:
  43:Libraries/CMSIS/Include/core_cm3.h **** 
  44:Libraries/CMSIS/Include/core_cm3.h ****    \li Required Rule 8.5, object/function definition in header file.<br>
  45:Libraries/CMSIS/Include/core_cm3.h ****      Function definitions in header files are used to allow 'inlining'.
  46:Libraries/CMSIS/Include/core_cm3.h **** 
  47:Libraries/CMSIS/Include/core_cm3.h ****    \li Required Rule 18.4, declaration of union type or object of union type: '{...}'.<br>
  48:Libraries/CMSIS/Include/core_cm3.h ****      Unions are used for effective representation of core registers.
  49:Libraries/CMSIS/Include/core_cm3.h **** 
  50:Libraries/CMSIS/Include/core_cm3.h ****    \li Advisory Rule 19.7, Function-like macro defined.<br>
  51:Libraries/CMSIS/Include/core_cm3.h ****      Function-like macros are used to allow more efficient code.
  52:Libraries/CMSIS/Include/core_cm3.h ****  */
  53:Libraries/CMSIS/Include/core_cm3.h **** 
  54:Libraries/CMSIS/Include/core_cm3.h **** 
  55:Libraries/CMSIS/Include/core_cm3.h **** /*******************************************************************************
  56:Libraries/CMSIS/Include/core_cm3.h ****  *                 CMSIS definitions
  57:Libraries/CMSIS/Include/core_cm3.h ****  ******************************************************************************/
  58:Libraries/CMSIS/Include/core_cm3.h **** /**
  59:Libraries/CMSIS/Include/core_cm3.h ****   \ingroup Cortex_M3
  60:Libraries/CMSIS/Include/core_cm3.h ****   @{
  61:Libraries/CMSIS/Include/core_cm3.h ****  */
  62:Libraries/CMSIS/Include/core_cm3.h **** 
  63:Libraries/CMSIS/Include/core_cm3.h **** #include "cmsis_version.h"
  64:Libraries/CMSIS/Include/core_cm3.h **** 
  65:Libraries/CMSIS/Include/core_cm3.h **** /*  CMSIS CM3 definitions */
  66:Libraries/CMSIS/Include/core_cm3.h **** #define __CM3_CMSIS_VERSION_MAIN  (__CM_CMSIS_VERSION_MAIN)              /*!< \deprecated [31:16] C
  67:Libraries/CMSIS/Include/core_cm3.h **** #define __CM3_CMSIS_VERSION_SUB   (__CM_CMSIS_VERSION_SUB)               /*!< \deprecated [15:0]  C
  68:Libraries/CMSIS/Include/core_cm3.h **** #define __CM3_CMSIS_VERSION       ((__CM3_CMSIS_VERSION_MAIN << 16U) | \
  69:Libraries/CMSIS/Include/core_cm3.h ****                                     __CM3_CMSIS_VERSION_SUB           )  /*!< \deprecated CMSIS HAL
  70:Libraries/CMSIS/Include/core_cm3.h **** 
  71:Libraries/CMSIS/Include/core_cm3.h **** #define __CORTEX_M                (3U)                                   /*!< Cortex-M Core */
  72:Libraries/CMSIS/Include/core_cm3.h **** 
  73:Libraries/CMSIS/Include/core_cm3.h **** /** __FPU_USED indicates whether an FPU is used or not.
  74:Libraries/CMSIS/Include/core_cm3.h ****     This core does not support an FPU at all
  75:Libraries/CMSIS/Include/core_cm3.h **** */
  76:Libraries/CMSIS/Include/core_cm3.h **** #define __FPU_USED       0U
  77:Libraries/CMSIS/Include/core_cm3.h **** 
  78:Libraries/CMSIS/Include/core_cm3.h **** #if defined ( __CC_ARM )
  79:Libraries/CMSIS/Include/core_cm3.h ****   #if defined __TARGET_FPU_VFP
  80:Libraries/CMSIS/Include/core_cm3.h ****     #error "Compiler generates FPU instructions for a device without an FPU (check __FPU_PRESENT)"
  81:Libraries/CMSIS/Include/core_cm3.h ****   #endif
  82:Libraries/CMSIS/Include/core_cm3.h **** 
  83:Libraries/CMSIS/Include/core_cm3.h **** #elif defined (__ARMCC_VERSION) && (__ARMCC_VERSION >= 6010050)
  84:Libraries/CMSIS/Include/core_cm3.h ****   #if defined __ARM_PCS_VFP
  85:Libraries/CMSIS/Include/core_cm3.h ****     #error "Compiler generates FPU instructions for a device without an FPU (check __FPU_PRESENT)"
  86:Libraries/CMSIS/Include/core_cm3.h ****   #endif
ARM GAS  C:\Users\ADMIN\AppData\Local\Temp\ccIuv89a.s 			page 31


  87:Libraries/CMSIS/Include/core_cm3.h **** 
  88:Libraries/CMSIS/Include/core_cm3.h **** #elif defined ( __GNUC__ )
  89:Libraries/CMSIS/Include/core_cm3.h ****   #if defined (__VFP_FP__) && !defined(__SOFTFP__)
  90:Libraries/CMSIS/Include/core_cm3.h ****     #error "Compiler generates FPU instructions for a device without an FPU (check __FPU_PRESENT)"
  91:Libraries/CMSIS/Include/core_cm3.h ****   #endif
  92:Libraries/CMSIS/Include/core_cm3.h **** 
  93:Libraries/CMSIS/Include/core_cm3.h **** #elif defined ( __ICCARM__ )
  94:Libraries/CMSIS/Include/core_cm3.h ****   #if defined __ARMVFP__
  95:Libraries/CMSIS/Include/core_cm3.h ****     #error "Compiler generates FPU instructions for a device without an FPU (check __FPU_PRESENT)"
  96:Libraries/CMSIS/Include/core_cm3.h ****   #endif
  97:Libraries/CMSIS/Include/core_cm3.h **** 
  98:Libraries/CMSIS/Include/core_cm3.h **** #elif defined ( __TI_ARM__ )
  99:Libraries/CMSIS/Include/core_cm3.h ****   #if defined __TI_VFP_SUPPORT__
 100:Libraries/CMSIS/Include/core_cm3.h ****     #error "Compiler generates FPU instructions for a device without an FPU (check __FPU_PRESENT)"
 101:Libraries/CMSIS/Include/core_cm3.h ****   #endif
 102:Libraries/CMSIS/Include/core_cm3.h **** 
 103:Libraries/CMSIS/Include/core_cm3.h **** #elif defined ( __TASKING__ )
 104:Libraries/CMSIS/Include/core_cm3.h ****   #if defined __FPU_VFP__
 105:Libraries/CMSIS/Include/core_cm3.h ****     #error "Compiler generates FPU instructions for a device without an FPU (check __FPU_PRESENT)"
 106:Libraries/CMSIS/Include/core_cm3.h ****   #endif
 107:Libraries/CMSIS/Include/core_cm3.h **** 
 108:Libraries/CMSIS/Include/core_cm3.h **** #elif defined ( __CSMC__ )
 109:Libraries/CMSIS/Include/core_cm3.h ****   #if ( __CSMC__ & 0x400U)
 110:Libraries/CMSIS/Include/core_cm3.h ****     #error "Compiler generates FPU instructions for a device without an FPU (check __FPU_PRESENT)"
 111:Libraries/CMSIS/Include/core_cm3.h ****   #endif
 112:Libraries/CMSIS/Include/core_cm3.h **** 
 113:Libraries/CMSIS/Include/core_cm3.h **** #endif
 114:Libraries/CMSIS/Include/core_cm3.h **** 
 115:Libraries/CMSIS/Include/core_cm3.h **** #include "cmsis_compiler.h"               /* CMSIS compiler specific defines */
 116:Libraries/CMSIS/Include/core_cm3.h **** 
 117:Libraries/CMSIS/Include/core_cm3.h **** 
 118:Libraries/CMSIS/Include/core_cm3.h **** #ifdef __cplusplus
 119:Libraries/CMSIS/Include/core_cm3.h **** }
 120:Libraries/CMSIS/Include/core_cm3.h **** #endif
 121:Libraries/CMSIS/Include/core_cm3.h **** 
 122:Libraries/CMSIS/Include/core_cm3.h **** #endif /* __CORE_CM3_H_GENERIC */
 123:Libraries/CMSIS/Include/core_cm3.h **** 
 124:Libraries/CMSIS/Include/core_cm3.h **** #ifndef __CMSIS_GENERIC
 125:Libraries/CMSIS/Include/core_cm3.h **** 
 126:Libraries/CMSIS/Include/core_cm3.h **** #ifndef __CORE_CM3_H_DEPENDANT
 127:Libraries/CMSIS/Include/core_cm3.h **** #define __CORE_CM3_H_DEPENDANT
 128:Libraries/CMSIS/Include/core_cm3.h **** 
 129:Libraries/CMSIS/Include/core_cm3.h **** #ifdef __cplusplus
 130:Libraries/CMSIS/Include/core_cm3.h ****  extern "C" {
 131:Libraries/CMSIS/Include/core_cm3.h **** #endif
 132:Libraries/CMSIS/Include/core_cm3.h **** 
 133:Libraries/CMSIS/Include/core_cm3.h **** /* check device defines and use defaults */
 134:Libraries/CMSIS/Include/core_cm3.h **** #if defined __CHECK_DEVICE_DEFINES
 135:Libraries/CMSIS/Include/core_cm3.h ****   #ifndef __CM3_REV
 136:Libraries/CMSIS/Include/core_cm3.h ****     #define __CM3_REV               0x0200U
 137:Libraries/CMSIS/Include/core_cm3.h ****     #warning "__CM3_REV not defined in device header file; using default!"
 138:Libraries/CMSIS/Include/core_cm3.h ****   #endif
 139:Libraries/CMSIS/Include/core_cm3.h **** 
 140:Libraries/CMSIS/Include/core_cm3.h ****   #ifndef __MPU_PRESENT
 141:Libraries/CMSIS/Include/core_cm3.h ****     #define __MPU_PRESENT             0U
 142:Libraries/CMSIS/Include/core_cm3.h ****     #warning "__MPU_PRESENT not defined in device header file; using default!"
 143:Libraries/CMSIS/Include/core_cm3.h ****   #endif
ARM GAS  C:\Users\ADMIN\AppData\Local\Temp\ccIuv89a.s 			page 32


 144:Libraries/CMSIS/Include/core_cm3.h **** 
 145:Libraries/CMSIS/Include/core_cm3.h ****   #ifndef __NVIC_PRIO_BITS
 146:Libraries/CMSIS/Include/core_cm3.h ****     #define __NVIC_PRIO_BITS          3U
 147:Libraries/CMSIS/Include/core_cm3.h ****     #warning "__NVIC_PRIO_BITS not defined in device header file; using default!"
 148:Libraries/CMSIS/Include/core_cm3.h ****   #endif
 149:Libraries/CMSIS/Include/core_cm3.h **** 
 150:Libraries/CMSIS/Include/core_cm3.h ****   #ifndef __Vendor_SysTickConfig
 151:Libraries/CMSIS/Include/core_cm3.h ****     #define __Vendor_SysTickConfig    0U
 152:Libraries/CMSIS/Include/core_cm3.h ****     #warning "__Vendor_SysTickConfig not defined in device header file; using default!"
 153:Libraries/CMSIS/Include/core_cm3.h ****   #endif
 154:Libraries/CMSIS/Include/core_cm3.h **** #endif
 155:Libraries/CMSIS/Include/core_cm3.h **** 
 156:Libraries/CMSIS/Include/core_cm3.h **** /* IO definitions (access restrictions to peripheral registers) */
 157:Libraries/CMSIS/Include/core_cm3.h **** /**
 158:Libraries/CMSIS/Include/core_cm3.h ****     \defgroup CMSIS_glob_defs CMSIS Global Defines
 159:Libraries/CMSIS/Include/core_cm3.h **** 
 160:Libraries/CMSIS/Include/core_cm3.h ****     <strong>IO Type Qualifiers</strong> are used
 161:Libraries/CMSIS/Include/core_cm3.h ****     \li to specify the access to peripheral variables.
 162:Libraries/CMSIS/Include/core_cm3.h ****     \li for automatic generation of peripheral register debug information.
 163:Libraries/CMSIS/Include/core_cm3.h **** */
 164:Libraries/CMSIS/Include/core_cm3.h **** #ifdef __cplusplus
 165:Libraries/CMSIS/Include/core_cm3.h ****   #define   __I     volatile             /*!< Defines 'read only' permissions */
 166:Libraries/CMSIS/Include/core_cm3.h **** #else
 167:Libraries/CMSIS/Include/core_cm3.h ****   #define   __I     volatile const       /*!< Defines 'read only' permissions */
 168:Libraries/CMSIS/Include/core_cm3.h **** #endif
 169:Libraries/CMSIS/Include/core_cm3.h **** #define     __O     volatile             /*!< Defines 'write only' permissions */
 170:Libraries/CMSIS/Include/core_cm3.h **** #define     __IO    volatile             /*!< Defines 'read / write' permissions */
 171:Libraries/CMSIS/Include/core_cm3.h **** 
 172:Libraries/CMSIS/Include/core_cm3.h **** /* following defines should be used for structure members */
 173:Libraries/CMSIS/Include/core_cm3.h **** #define     __IM     volatile const      /*! Defines 'read only' structure member permissions */
 174:Libraries/CMSIS/Include/core_cm3.h **** #define     __OM     volatile            /*! Defines 'write only' structure member permissions */
 175:Libraries/CMSIS/Include/core_cm3.h **** #define     __IOM    volatile            /*! Defines 'read / write' structure member permissions */
 176:Libraries/CMSIS/Include/core_cm3.h **** 
 177:Libraries/CMSIS/Include/core_cm3.h **** /*@} end of group Cortex_M3 */
 178:Libraries/CMSIS/Include/core_cm3.h **** 
 179:Libraries/CMSIS/Include/core_cm3.h **** 
 180:Libraries/CMSIS/Include/core_cm3.h **** 
 181:Libraries/CMSIS/Include/core_cm3.h **** /*******************************************************************************
 182:Libraries/CMSIS/Include/core_cm3.h ****  *                 Register Abstraction
 183:Libraries/CMSIS/Include/core_cm3.h ****   Core Register contain:
 184:Libraries/CMSIS/Include/core_cm3.h ****   - Core Register
 185:Libraries/CMSIS/Include/core_cm3.h ****   - Core NVIC Register
 186:Libraries/CMSIS/Include/core_cm3.h ****   - Core SCB Register
 187:Libraries/CMSIS/Include/core_cm3.h ****   - Core SysTick Register
 188:Libraries/CMSIS/Include/core_cm3.h ****   - Core Debug Register
 189:Libraries/CMSIS/Include/core_cm3.h ****   - Core MPU Register
 190:Libraries/CMSIS/Include/core_cm3.h ****  ******************************************************************************/
 191:Libraries/CMSIS/Include/core_cm3.h **** /**
 192:Libraries/CMSIS/Include/core_cm3.h ****   \defgroup CMSIS_core_register Defines and Type Definitions
 193:Libraries/CMSIS/Include/core_cm3.h ****   \brief Type definitions and defines for Cortex-M processor based devices.
 194:Libraries/CMSIS/Include/core_cm3.h **** */
 195:Libraries/CMSIS/Include/core_cm3.h **** 
 196:Libraries/CMSIS/Include/core_cm3.h **** /**
 197:Libraries/CMSIS/Include/core_cm3.h ****   \ingroup    CMSIS_core_register
 198:Libraries/CMSIS/Include/core_cm3.h ****   \defgroup   CMSIS_CORE  Status and Control Registers
 199:Libraries/CMSIS/Include/core_cm3.h ****   \brief      Core Register type definitions.
 200:Libraries/CMSIS/Include/core_cm3.h ****   @{
ARM GAS  C:\Users\ADMIN\AppData\Local\Temp\ccIuv89a.s 			page 33


 201:Libraries/CMSIS/Include/core_cm3.h ****  */
 202:Libraries/CMSIS/Include/core_cm3.h **** 
 203:Libraries/CMSIS/Include/core_cm3.h **** /**
 204:Libraries/CMSIS/Include/core_cm3.h ****   \brief  Union type to access the Application Program Status Register (APSR).
 205:Libraries/CMSIS/Include/core_cm3.h ****  */
 206:Libraries/CMSIS/Include/core_cm3.h **** typedef union
 207:Libraries/CMSIS/Include/core_cm3.h **** {
 208:Libraries/CMSIS/Include/core_cm3.h ****   struct
 209:Libraries/CMSIS/Include/core_cm3.h ****   {
 210:Libraries/CMSIS/Include/core_cm3.h ****     uint32_t _reserved0:27;              /*!< bit:  0..26  Reserved */
 211:Libraries/CMSIS/Include/core_cm3.h ****     uint32_t Q:1;                        /*!< bit:     27  Saturation condition flag */
 212:Libraries/CMSIS/Include/core_cm3.h ****     uint32_t V:1;                        /*!< bit:     28  Overflow condition code flag */
 213:Libraries/CMSIS/Include/core_cm3.h ****     uint32_t C:1;                        /*!< bit:     29  Carry condition code flag */
 214:Libraries/CMSIS/Include/core_cm3.h ****     uint32_t Z:1;                        /*!< bit:     30  Zero condition code flag */
 215:Libraries/CMSIS/Include/core_cm3.h ****     uint32_t N:1;                        /*!< bit:     31  Negative condition code flag */
 216:Libraries/CMSIS/Include/core_cm3.h ****   } b;                                   /*!< Structure used for bit  access */
 217:Libraries/CMSIS/Include/core_cm3.h ****   uint32_t w;                            /*!< Type      used for word access */
 218:Libraries/CMSIS/Include/core_cm3.h **** } APSR_Type;
 219:Libraries/CMSIS/Include/core_cm3.h **** 
 220:Libraries/CMSIS/Include/core_cm3.h **** /* APSR Register Definitions */
 221:Libraries/CMSIS/Include/core_cm3.h **** #define APSR_N_Pos                         31U                                            /*!< APSR
 222:Libraries/CMSIS/Include/core_cm3.h **** #define APSR_N_Msk                         (1UL << APSR_N_Pos)                            /*!< APSR
 223:Libraries/CMSIS/Include/core_cm3.h **** 
 224:Libraries/CMSIS/Include/core_cm3.h **** #define APSR_Z_Pos                         30U                                            /*!< APSR
 225:Libraries/CMSIS/Include/core_cm3.h **** #define APSR_Z_Msk                         (1UL << APSR_Z_Pos)                            /*!< APSR
 226:Libraries/CMSIS/Include/core_cm3.h **** 
 227:Libraries/CMSIS/Include/core_cm3.h **** #define APSR_C_Pos                         29U                                            /*!< APSR
 228:Libraries/CMSIS/Include/core_cm3.h **** #define APSR_C_Msk                         (1UL << APSR_C_Pos)                            /*!< APSR
 229:Libraries/CMSIS/Include/core_cm3.h **** 
 230:Libraries/CMSIS/Include/core_cm3.h **** #define APSR_V_Pos                         28U                                            /*!< APSR
 231:Libraries/CMSIS/Include/core_cm3.h **** #define APSR_V_Msk                         (1UL << APSR_V_Pos)                            /*!< APSR
 232:Libraries/CMSIS/Include/core_cm3.h **** 
 233:Libraries/CMSIS/Include/core_cm3.h **** #define APSR_Q_Pos                         27U                                            /*!< APSR
 234:Libraries/CMSIS/Include/core_cm3.h **** #define APSR_Q_Msk                         (1UL << APSR_Q_Pos)                            /*!< APSR
 235:Libraries/CMSIS/Include/core_cm3.h **** 
 236:Libraries/CMSIS/Include/core_cm3.h **** 
 237:Libraries/CMSIS/Include/core_cm3.h **** /**
 238:Libraries/CMSIS/Include/core_cm3.h ****   \brief  Union type to access the Interrupt Program Status Register (IPSR).
 239:Libraries/CMSIS/Include/core_cm3.h ****  */
 240:Libraries/CMSIS/Include/core_cm3.h **** typedef union
 241:Libraries/CMSIS/Include/core_cm3.h **** {
 242:Libraries/CMSIS/Include/core_cm3.h ****   struct
 243:Libraries/CMSIS/Include/core_cm3.h ****   {
 244:Libraries/CMSIS/Include/core_cm3.h ****     uint32_t ISR:9;                      /*!< bit:  0.. 8  Exception number */
 245:Libraries/CMSIS/Include/core_cm3.h ****     uint32_t _reserved0:23;              /*!< bit:  9..31  Reserved */
 246:Libraries/CMSIS/Include/core_cm3.h ****   } b;                                   /*!< Structure used for bit  access */
 247:Libraries/CMSIS/Include/core_cm3.h ****   uint32_t w;                            /*!< Type      used for word access */
 248:Libraries/CMSIS/Include/core_cm3.h **** } IPSR_Type;
 249:Libraries/CMSIS/Include/core_cm3.h **** 
 250:Libraries/CMSIS/Include/core_cm3.h **** /* IPSR Register Definitions */
 251:Libraries/CMSIS/Include/core_cm3.h **** #define IPSR_ISR_Pos                        0U                                            /*!< IPSR
 252:Libraries/CMSIS/Include/core_cm3.h **** #define IPSR_ISR_Msk                       (0x1FFUL /*<< IPSR_ISR_Pos*/)                  /*!< IPSR
 253:Libraries/CMSIS/Include/core_cm3.h **** 
 254:Libraries/CMSIS/Include/core_cm3.h **** 
 255:Libraries/CMSIS/Include/core_cm3.h **** /**
 256:Libraries/CMSIS/Include/core_cm3.h ****   \brief  Union type to access the Special-Purpose Program Status Registers (xPSR).
 257:Libraries/CMSIS/Include/core_cm3.h ****  */
ARM GAS  C:\Users\ADMIN\AppData\Local\Temp\ccIuv89a.s 			page 34


 258:Libraries/CMSIS/Include/core_cm3.h **** typedef union
 259:Libraries/CMSIS/Include/core_cm3.h **** {
 260:Libraries/CMSIS/Include/core_cm3.h ****   struct
 261:Libraries/CMSIS/Include/core_cm3.h ****   {
 262:Libraries/CMSIS/Include/core_cm3.h ****     uint32_t ISR:9;                      /*!< bit:  0.. 8  Exception number */
 263:Libraries/CMSIS/Include/core_cm3.h ****     uint32_t _reserved0:1;               /*!< bit:      9  Reserved */
 264:Libraries/CMSIS/Include/core_cm3.h ****     uint32_t ICI_IT_1:6;                 /*!< bit: 10..15  ICI/IT part 1 */
 265:Libraries/CMSIS/Include/core_cm3.h ****     uint32_t _reserved1:8;               /*!< bit: 16..23  Reserved */
 266:Libraries/CMSIS/Include/core_cm3.h ****     uint32_t T:1;                        /*!< bit:     24  Thumb bit */
 267:Libraries/CMSIS/Include/core_cm3.h ****     uint32_t ICI_IT_2:2;                 /*!< bit: 25..26  ICI/IT part 2 */
 268:Libraries/CMSIS/Include/core_cm3.h ****     uint32_t Q:1;                        /*!< bit:     27  Saturation condition flag */
 269:Libraries/CMSIS/Include/core_cm3.h ****     uint32_t V:1;                        /*!< bit:     28  Overflow condition code flag */
 270:Libraries/CMSIS/Include/core_cm3.h ****     uint32_t C:1;                        /*!< bit:     29  Carry condition code flag */
 271:Libraries/CMSIS/Include/core_cm3.h ****     uint32_t Z:1;                        /*!< bit:     30  Zero condition code flag */
 272:Libraries/CMSIS/Include/core_cm3.h ****     uint32_t N:1;                        /*!< bit:     31  Negative condition code flag */
 273:Libraries/CMSIS/Include/core_cm3.h ****   } b;                                   /*!< Structure used for bit  access */
 274:Libraries/CMSIS/Include/core_cm3.h ****   uint32_t w;                            /*!< Type      used for word access */
 275:Libraries/CMSIS/Include/core_cm3.h **** } xPSR_Type;
 276:Libraries/CMSIS/Include/core_cm3.h **** 
 277:Libraries/CMSIS/Include/core_cm3.h **** /* xPSR Register Definitions */
 278:Libraries/CMSIS/Include/core_cm3.h **** #define xPSR_N_Pos                         31U                                            /*!< xPSR
 279:Libraries/CMSIS/Include/core_cm3.h **** #define xPSR_N_Msk                         (1UL << xPSR_N_Pos)                            /*!< xPSR
 280:Libraries/CMSIS/Include/core_cm3.h **** 
 281:Libraries/CMSIS/Include/core_cm3.h **** #define xPSR_Z_Pos                         30U                                            /*!< xPSR
 282:Libraries/CMSIS/Include/core_cm3.h **** #define xPSR_Z_Msk                         (1UL << xPSR_Z_Pos)                            /*!< xPSR
 283:Libraries/CMSIS/Include/core_cm3.h **** 
 284:Libraries/CMSIS/Include/core_cm3.h **** #define xPSR_C_Pos                         29U                                            /*!< xPSR
 285:Libraries/CMSIS/Include/core_cm3.h **** #define xPSR_C_Msk                         (1UL << xPSR_C_Pos)                            /*!< xPSR
 286:Libraries/CMSIS/Include/core_cm3.h **** 
 287:Libraries/CMSIS/Include/core_cm3.h **** #define xPSR_V_Pos                         28U                                            /*!< xPSR
 288:Libraries/CMSIS/Include/core_cm3.h **** #define xPSR_V_Msk                         (1UL << xPSR_V_Pos)                            /*!< xPSR
 289:Libraries/CMSIS/Include/core_cm3.h **** 
 290:Libraries/CMSIS/Include/core_cm3.h **** #define xPSR_Q_Pos                         27U                                            /*!< xPSR
 291:Libraries/CMSIS/Include/core_cm3.h **** #define xPSR_Q_Msk                         (1UL << xPSR_Q_Pos)                            /*!< xPSR
 292:Libraries/CMSIS/Include/core_cm3.h **** 
 293:Libraries/CMSIS/Include/core_cm3.h **** #define xPSR_ICI_IT_2_Pos                  25U                                            /*!< xPSR
 294:Libraries/CMSIS/Include/core_cm3.h **** #define xPSR_ICI_IT_2_Msk                  (3UL << xPSR_ICI_IT_2_Pos)                     /*!< xPSR
 295:Libraries/CMSIS/Include/core_cm3.h **** 
 296:Libraries/CMSIS/Include/core_cm3.h **** #define xPSR_T_Pos                         24U                                            /*!< xPSR
 297:Libraries/CMSIS/Include/core_cm3.h **** #define xPSR_T_Msk                         (1UL << xPSR_T_Pos)                            /*!< xPSR
 298:Libraries/CMSIS/Include/core_cm3.h **** 
 299:Libraries/CMSIS/Include/core_cm3.h **** #define xPSR_ICI_IT_1_Pos                  10U                                            /*!< xPSR
 300:Libraries/CMSIS/Include/core_cm3.h **** #define xPSR_ICI_IT_1_Msk                  (0x3FUL << xPSR_ICI_IT_1_Pos)                  /*!< xPSR
 301:Libraries/CMSIS/Include/core_cm3.h **** 
 302:Libraries/CMSIS/Include/core_cm3.h **** #define xPSR_ISR_Pos                        0U                                            /*!< xPSR
 303:Libraries/CMSIS/Include/core_cm3.h **** #define xPSR_ISR_Msk                       (0x1FFUL /*<< xPSR_ISR_Pos*/)                  /*!< xPSR
 304:Libraries/CMSIS/Include/core_cm3.h **** 
 305:Libraries/CMSIS/Include/core_cm3.h **** 
 306:Libraries/CMSIS/Include/core_cm3.h **** /**
 307:Libraries/CMSIS/Include/core_cm3.h ****   \brief  Union type to access the Control Registers (CONTROL).
 308:Libraries/CMSIS/Include/core_cm3.h ****  */
 309:Libraries/CMSIS/Include/core_cm3.h **** typedef union
 310:Libraries/CMSIS/Include/core_cm3.h **** {
 311:Libraries/CMSIS/Include/core_cm3.h ****   struct
 312:Libraries/CMSIS/Include/core_cm3.h ****   {
 313:Libraries/CMSIS/Include/core_cm3.h ****     uint32_t nPRIV:1;                    /*!< bit:      0  Execution privilege in Thread mode */
 314:Libraries/CMSIS/Include/core_cm3.h ****     uint32_t SPSEL:1;                    /*!< bit:      1  Stack to be used */
ARM GAS  C:\Users\ADMIN\AppData\Local\Temp\ccIuv89a.s 			page 35


 315:Libraries/CMSIS/Include/core_cm3.h ****     uint32_t _reserved1:30;              /*!< bit:  2..31  Reserved */
 316:Libraries/CMSIS/Include/core_cm3.h ****   } b;                                   /*!< Structure used for bit  access */
 317:Libraries/CMSIS/Include/core_cm3.h ****   uint32_t w;                            /*!< Type      used for word access */
 318:Libraries/CMSIS/Include/core_cm3.h **** } CONTROL_Type;
 319:Libraries/CMSIS/Include/core_cm3.h **** 
 320:Libraries/CMSIS/Include/core_cm3.h **** /* CONTROL Register Definitions */
 321:Libraries/CMSIS/Include/core_cm3.h **** #define CONTROL_SPSEL_Pos                   1U                                            /*!< CONT
 322:Libraries/CMSIS/Include/core_cm3.h **** #define CONTROL_SPSEL_Msk                  (1UL << CONTROL_SPSEL_Pos)                     /*!< CONT
 323:Libraries/CMSIS/Include/core_cm3.h **** 
 324:Libraries/CMSIS/Include/core_cm3.h **** #define CONTROL_nPRIV_Pos                   0U                                            /*!< CONT
 325:Libraries/CMSIS/Include/core_cm3.h **** #define CONTROL_nPRIV_Msk                  (1UL /*<< CONTROL_nPRIV_Pos*/)                 /*!< CONT
 326:Libraries/CMSIS/Include/core_cm3.h **** 
 327:Libraries/CMSIS/Include/core_cm3.h **** /*@} end of group CMSIS_CORE */
 328:Libraries/CMSIS/Include/core_cm3.h **** 
 329:Libraries/CMSIS/Include/core_cm3.h **** 
 330:Libraries/CMSIS/Include/core_cm3.h **** /**
 331:Libraries/CMSIS/Include/core_cm3.h ****   \ingroup    CMSIS_core_register
 332:Libraries/CMSIS/Include/core_cm3.h ****   \defgroup   CMSIS_NVIC  Nested Vectored Interrupt Controller (NVIC)
 333:Libraries/CMSIS/Include/core_cm3.h ****   \brief      Type definitions for the NVIC Registers
 334:Libraries/CMSIS/Include/core_cm3.h ****   @{
 335:Libraries/CMSIS/Include/core_cm3.h ****  */
 336:Libraries/CMSIS/Include/core_cm3.h **** 
 337:Libraries/CMSIS/Include/core_cm3.h **** /**
 338:Libraries/CMSIS/Include/core_cm3.h ****   \brief  Structure type to access the Nested Vectored Interrupt Controller (NVIC).
 339:Libraries/CMSIS/Include/core_cm3.h ****  */
 340:Libraries/CMSIS/Include/core_cm3.h **** typedef struct
 341:Libraries/CMSIS/Include/core_cm3.h **** {
 342:Libraries/CMSIS/Include/core_cm3.h ****   __IOM uint32_t ISER[8U];               /*!< Offset: 0x000 (R/W)  Interrupt Set Enable Register */
 343:Libraries/CMSIS/Include/core_cm3.h ****         uint32_t RESERVED0[24U];
 344:Libraries/CMSIS/Include/core_cm3.h ****   __IOM uint32_t ICER[8U];               /*!< Offset: 0x080 (R/W)  Interrupt Clear Enable Register 
 345:Libraries/CMSIS/Include/core_cm3.h ****         uint32_t RSERVED1[24U];
 346:Libraries/CMSIS/Include/core_cm3.h ****   __IOM uint32_t ISPR[8U];               /*!< Offset: 0x100 (R/W)  Interrupt Set Pending Register *
 347:Libraries/CMSIS/Include/core_cm3.h ****         uint32_t RESERVED2[24U];
 348:Libraries/CMSIS/Include/core_cm3.h ****   __IOM uint32_t ICPR[8U];               /*!< Offset: 0x180 (R/W)  Interrupt Clear Pending Register
 349:Libraries/CMSIS/Include/core_cm3.h ****         uint32_t RESERVED3[24U];
 350:Libraries/CMSIS/Include/core_cm3.h ****   __IOM uint32_t IABR[8U];               /*!< Offset: 0x200 (R/W)  Interrupt Active bit Register */
 351:Libraries/CMSIS/Include/core_cm3.h ****         uint32_t RESERVED4[56U];
 352:Libraries/CMSIS/Include/core_cm3.h ****   __IOM uint8_t  IP[240U];               /*!< Offset: 0x300 (R/W)  Interrupt Priority Register (8Bi
 353:Libraries/CMSIS/Include/core_cm3.h ****         uint32_t RESERVED5[644U];
 354:Libraries/CMSIS/Include/core_cm3.h ****   __OM  uint32_t STIR;                   /*!< Offset: 0xE00 ( /W)  Software Trigger Interrupt Regis
 355:Libraries/CMSIS/Include/core_cm3.h **** }  NVIC_Type;
 356:Libraries/CMSIS/Include/core_cm3.h **** 
 357:Libraries/CMSIS/Include/core_cm3.h **** /* Software Triggered Interrupt Register Definitions */
 358:Libraries/CMSIS/Include/core_cm3.h **** #define NVIC_STIR_INTID_Pos                 0U                                         /*!< STIR: I
 359:Libraries/CMSIS/Include/core_cm3.h **** #define NVIC_STIR_INTID_Msk                (0x1FFUL /*<< NVIC_STIR_INTID_Pos*/)        /*!< STIR: I
 360:Libraries/CMSIS/Include/core_cm3.h **** 
 361:Libraries/CMSIS/Include/core_cm3.h **** /*@} end of group CMSIS_NVIC */
 362:Libraries/CMSIS/Include/core_cm3.h **** 
 363:Libraries/CMSIS/Include/core_cm3.h **** 
 364:Libraries/CMSIS/Include/core_cm3.h **** /**
 365:Libraries/CMSIS/Include/core_cm3.h ****   \ingroup  CMSIS_core_register
 366:Libraries/CMSIS/Include/core_cm3.h ****   \defgroup CMSIS_SCB     System Control Block (SCB)
 367:Libraries/CMSIS/Include/core_cm3.h ****   \brief    Type definitions for the System Control Block Registers
 368:Libraries/CMSIS/Include/core_cm3.h ****   @{
 369:Libraries/CMSIS/Include/core_cm3.h ****  */
 370:Libraries/CMSIS/Include/core_cm3.h **** 
 371:Libraries/CMSIS/Include/core_cm3.h **** /**
ARM GAS  C:\Users\ADMIN\AppData\Local\Temp\ccIuv89a.s 			page 36


 372:Libraries/CMSIS/Include/core_cm3.h ****   \brief  Structure type to access the System Control Block (SCB).
 373:Libraries/CMSIS/Include/core_cm3.h ****  */
 374:Libraries/CMSIS/Include/core_cm3.h **** typedef struct
 375:Libraries/CMSIS/Include/core_cm3.h **** {
 376:Libraries/CMSIS/Include/core_cm3.h ****   __IM  uint32_t CPUID;                  /*!< Offset: 0x000 (R/ )  CPUID Base Register */
 377:Libraries/CMSIS/Include/core_cm3.h ****   __IOM uint32_t ICSR;                   /*!< Offset: 0x004 (R/W)  Interrupt Control and State Regi
 378:Libraries/CMSIS/Include/core_cm3.h ****   __IOM uint32_t VTOR;                   /*!< Offset: 0x008 (R/W)  Vector Table Offset Register */
 379:Libraries/CMSIS/Include/core_cm3.h ****   __IOM uint32_t AIRCR;                  /*!< Offset: 0x00C (R/W)  Application Interrupt and Reset 
 380:Libraries/CMSIS/Include/core_cm3.h ****   __IOM uint32_t SCR;                    /*!< Offset: 0x010 (R/W)  System Control Register */
 381:Libraries/CMSIS/Include/core_cm3.h ****   __IOM uint32_t CCR;                    /*!< Offset: 0x014 (R/W)  Configuration Control Register *
 382:Libraries/CMSIS/Include/core_cm3.h ****   __IOM uint8_t  SHP[12U];               /*!< Offset: 0x018 (R/W)  System Handlers Priority Registe
 383:Libraries/CMSIS/Include/core_cm3.h ****   __IOM uint32_t SHCSR;                  /*!< Offset: 0x024 (R/W)  System Handler Control and State
 384:Libraries/CMSIS/Include/core_cm3.h ****   __IOM uint32_t CFSR;                   /*!< Offset: 0x028 (R/W)  Configurable Fault Status Regist
 385:Libraries/CMSIS/Include/core_cm3.h ****   __IOM uint32_t HFSR;                   /*!< Offset: 0x02C (R/W)  HardFault Status Register */
 386:Libraries/CMSIS/Include/core_cm3.h ****   __IOM uint32_t DFSR;                   /*!< Offset: 0x030 (R/W)  Debug Fault Status Register */
 387:Libraries/CMSIS/Include/core_cm3.h ****   __IOM uint32_t MMFAR;                  /*!< Offset: 0x034 (R/W)  MemManage Fault Address Register
 388:Libraries/CMSIS/Include/core_cm3.h ****   __IOM uint32_t BFAR;                   /*!< Offset: 0x038 (R/W)  BusFault Address Register */
 389:Libraries/CMSIS/Include/core_cm3.h ****   __IOM uint32_t AFSR;                   /*!< Offset: 0x03C (R/W)  Auxiliary Fault Status Register 
 390:Libraries/CMSIS/Include/core_cm3.h ****   __IM  uint32_t PFR[2U];                /*!< Offset: 0x040 (R/ )  Processor Feature Register */
 391:Libraries/CMSIS/Include/core_cm3.h ****   __IM  uint32_t DFR;                    /*!< Offset: 0x048 (R/ )  Debug Feature Register */
 392:Libraries/CMSIS/Include/core_cm3.h ****   __IM  uint32_t ADR;                    /*!< Offset: 0x04C (R/ )  Auxiliary Feature Register */
 393:Libraries/CMSIS/Include/core_cm3.h ****   __IM  uint32_t MMFR[4U];               /*!< Offset: 0x050 (R/ )  Memory Model Feature Register */
 394:Libraries/CMSIS/Include/core_cm3.h ****   __IM  uint32_t ISAR[5U];               /*!< Offset: 0x060 (R/ )  Instruction Set Attributes Regis
 395:Libraries/CMSIS/Include/core_cm3.h ****         uint32_t RESERVED0[5U];
 396:Libraries/CMSIS/Include/core_cm3.h ****   __IOM uint32_t CPACR;                  /*!< Offset: 0x088 (R/W)  Coprocessor Access Control Regis
 397:Libraries/CMSIS/Include/core_cm3.h **** } SCB_Type;
 398:Libraries/CMSIS/Include/core_cm3.h **** 
 399:Libraries/CMSIS/Include/core_cm3.h **** /* SCB CPUID Register Definitions */
 400:Libraries/CMSIS/Include/core_cm3.h **** #define SCB_CPUID_IMPLEMENTER_Pos          24U                                            /*!< SCB 
 401:Libraries/CMSIS/Include/core_cm3.h **** #define SCB_CPUID_IMPLEMENTER_Msk          (0xFFUL << SCB_CPUID_IMPLEMENTER_Pos)          /*!< SCB 
 402:Libraries/CMSIS/Include/core_cm3.h **** 
 403:Libraries/CMSIS/Include/core_cm3.h **** #define SCB_CPUID_VARIANT_Pos              20U                                            /*!< SCB 
 404:Libraries/CMSIS/Include/core_cm3.h **** #define SCB_CPUID_VARIANT_Msk              (0xFUL << SCB_CPUID_VARIANT_Pos)               /*!< SCB 
 405:Libraries/CMSIS/Include/core_cm3.h **** 
 406:Libraries/CMSIS/Include/core_cm3.h **** #define SCB_CPUID_ARCHITECTURE_Pos         16U                                            /*!< SCB 
 407:Libraries/CMSIS/Include/core_cm3.h **** #define SCB_CPUID_ARCHITECTURE_Msk         (0xFUL << SCB_CPUID_ARCHITECTURE_Pos)          /*!< SCB 
 408:Libraries/CMSIS/Include/core_cm3.h **** 
 409:Libraries/CMSIS/Include/core_cm3.h **** #define SCB_CPUID_PARTNO_Pos                4U                                            /*!< SCB 
 410:Libraries/CMSIS/Include/core_cm3.h **** #define SCB_CPUID_PARTNO_Msk               (0xFFFUL << SCB_CPUID_PARTNO_Pos)              /*!< SCB 
 411:Libraries/CMSIS/Include/core_cm3.h **** 
 412:Libraries/CMSIS/Include/core_cm3.h **** #define SCB_CPUID_REVISION_Pos              0U                                            /*!< SCB 
 413:Libraries/CMSIS/Include/core_cm3.h **** #define SCB_CPUID_REVISION_Msk             (0xFUL /*<< SCB_CPUID_REVISION_Pos*/)          /*!< SCB 
 414:Libraries/CMSIS/Include/core_cm3.h **** 
 415:Libraries/CMSIS/Include/core_cm3.h **** /* SCB Interrupt Control State Register Definitions */
 416:Libraries/CMSIS/Include/core_cm3.h **** #define SCB_ICSR_NMIPENDSET_Pos            31U                                            /*!< SCB 
 417:Libraries/CMSIS/Include/core_cm3.h **** #define SCB_ICSR_NMIPENDSET_Msk            (1UL << SCB_ICSR_NMIPENDSET_Pos)               /*!< SCB 
 418:Libraries/CMSIS/Include/core_cm3.h **** 
 419:Libraries/CMSIS/Include/core_cm3.h **** #define SCB_ICSR_PENDSVSET_Pos             28U                                            /*!< SCB 
 420:Libraries/CMSIS/Include/core_cm3.h **** #define SCB_ICSR_PENDSVSET_Msk             (1UL << SCB_ICSR_PENDSVSET_Pos)                /*!< SCB 
 421:Libraries/CMSIS/Include/core_cm3.h **** 
 422:Libraries/CMSIS/Include/core_cm3.h **** #define SCB_ICSR_PENDSVCLR_Pos             27U                                            /*!< SCB 
 423:Libraries/CMSIS/Include/core_cm3.h **** #define SCB_ICSR_PENDSVCLR_Msk             (1UL << SCB_ICSR_PENDSVCLR_Pos)                /*!< SCB 
 424:Libraries/CMSIS/Include/core_cm3.h **** 
 425:Libraries/CMSIS/Include/core_cm3.h **** #define SCB_ICSR_PENDSTSET_Pos             26U                                            /*!< SCB 
 426:Libraries/CMSIS/Include/core_cm3.h **** #define SCB_ICSR_PENDSTSET_Msk             (1UL << SCB_ICSR_PENDSTSET_Pos)                /*!< SCB 
 427:Libraries/CMSIS/Include/core_cm3.h **** 
 428:Libraries/CMSIS/Include/core_cm3.h **** #define SCB_ICSR_PENDSTCLR_Pos             25U                                            /*!< SCB 
ARM GAS  C:\Users\ADMIN\AppData\Local\Temp\ccIuv89a.s 			page 37


 429:Libraries/CMSIS/Include/core_cm3.h **** #define SCB_ICSR_PENDSTCLR_Msk             (1UL << SCB_ICSR_PENDSTCLR_Pos)                /*!< SCB 
 430:Libraries/CMSIS/Include/core_cm3.h **** 
 431:Libraries/CMSIS/Include/core_cm3.h **** #define SCB_ICSR_ISRPREEMPT_Pos            23U                                            /*!< SCB 
 432:Libraries/CMSIS/Include/core_cm3.h **** #define SCB_ICSR_ISRPREEMPT_Msk            (1UL << SCB_ICSR_ISRPREEMPT_Pos)               /*!< SCB 
 433:Libraries/CMSIS/Include/core_cm3.h **** 
 434:Libraries/CMSIS/Include/core_cm3.h **** #define SCB_ICSR_ISRPENDING_Pos            22U                                            /*!< SCB 
 435:Libraries/CMSIS/Include/core_cm3.h **** #define SCB_ICSR_ISRPENDING_Msk            (1UL << SCB_ICSR_ISRPENDING_Pos)               /*!< SCB 
 436:Libraries/CMSIS/Include/core_cm3.h **** 
 437:Libraries/CMSIS/Include/core_cm3.h **** #define SCB_ICSR_VECTPENDING_Pos           12U                                            /*!< SCB 
 438:Libraries/CMSIS/Include/core_cm3.h **** #define SCB_ICSR_VECTPENDING_Msk           (0x1FFUL << SCB_ICSR_VECTPENDING_Pos)          /*!< SCB 
 439:Libraries/CMSIS/Include/core_cm3.h **** 
 440:Libraries/CMSIS/Include/core_cm3.h **** #define SCB_ICSR_RETTOBASE_Pos             11U                                            /*!< SCB 
 441:Libraries/CMSIS/Include/core_cm3.h **** #define SCB_ICSR_RETTOBASE_Msk             (1UL << SCB_ICSR_RETTOBASE_Pos)                /*!< SCB 
 442:Libraries/CMSIS/Include/core_cm3.h **** 
 443:Libraries/CMSIS/Include/core_cm3.h **** #define SCB_ICSR_VECTACTIVE_Pos             0U                                            /*!< SCB 
 444:Libraries/CMSIS/Include/core_cm3.h **** #define SCB_ICSR_VECTACTIVE_Msk            (0x1FFUL /*<< SCB_ICSR_VECTACTIVE_Pos*/)       /*!< SCB 
 445:Libraries/CMSIS/Include/core_cm3.h **** 
 446:Libraries/CMSIS/Include/core_cm3.h **** /* SCB Vector Table Offset Register Definitions */
 447:Libraries/CMSIS/Include/core_cm3.h **** #if defined (__CM3_REV) && (__CM3_REV < 0x0201U)                   /* core r2p1 */
 448:Libraries/CMSIS/Include/core_cm3.h **** #define SCB_VTOR_TBLBASE_Pos               29U                                            /*!< SCB 
 449:Libraries/CMSIS/Include/core_cm3.h **** #define SCB_VTOR_TBLBASE_Msk               (1UL << SCB_VTOR_TBLBASE_Pos)                  /*!< SCB 
 450:Libraries/CMSIS/Include/core_cm3.h **** 
 451:Libraries/CMSIS/Include/core_cm3.h **** #define SCB_VTOR_TBLOFF_Pos                 7U                                            /*!< SCB 
 452:Libraries/CMSIS/Include/core_cm3.h **** #define SCB_VTOR_TBLOFF_Msk                (0x3FFFFFUL << SCB_VTOR_TBLOFF_Pos)            /*!< SCB 
 453:Libraries/CMSIS/Include/core_cm3.h **** #else
 454:Libraries/CMSIS/Include/core_cm3.h **** #define SCB_VTOR_TBLOFF_Pos                 7U                                            /*!< SCB 
 455:Libraries/CMSIS/Include/core_cm3.h **** #define SCB_VTOR_TBLOFF_Msk                (0x1FFFFFFUL << SCB_VTOR_TBLOFF_Pos)           /*!< SCB 
 456:Libraries/CMSIS/Include/core_cm3.h **** #endif
 457:Libraries/CMSIS/Include/core_cm3.h **** 
 458:Libraries/CMSIS/Include/core_cm3.h **** /* SCB Application Interrupt and Reset Control Register Definitions */
 459:Libraries/CMSIS/Include/core_cm3.h **** #define SCB_AIRCR_VECTKEY_Pos              16U                                            /*!< SCB 
 460:Libraries/CMSIS/Include/core_cm3.h **** #define SCB_AIRCR_VECTKEY_Msk              (0xFFFFUL << SCB_AIRCR_VECTKEY_Pos)            /*!< SCB 
 461:Libraries/CMSIS/Include/core_cm3.h **** 
 462:Libraries/CMSIS/Include/core_cm3.h **** #define SCB_AIRCR_VECTKEYSTAT_Pos          16U                                            /*!< SCB 
 463:Libraries/CMSIS/Include/core_cm3.h **** #define SCB_AIRCR_VECTKEYSTAT_Msk          (0xFFFFUL << SCB_AIRCR_VECTKEYSTAT_Pos)        /*!< SCB 
 464:Libraries/CMSIS/Include/core_cm3.h **** 
 465:Libraries/CMSIS/Include/core_cm3.h **** #define SCB_AIRCR_ENDIANESS_Pos            15U                                            /*!< SCB 
 466:Libraries/CMSIS/Include/core_cm3.h **** #define SCB_AIRCR_ENDIANESS_Msk            (1UL << SCB_AIRCR_ENDIANESS_Pos)               /*!< SCB 
 467:Libraries/CMSIS/Include/core_cm3.h **** 
 468:Libraries/CMSIS/Include/core_cm3.h **** #define SCB_AIRCR_PRIGROUP_Pos              8U                                            /*!< SCB 
 469:Libraries/CMSIS/Include/core_cm3.h **** #define SCB_AIRCR_PRIGROUP_Msk             (7UL << SCB_AIRCR_PRIGROUP_Pos)                /*!< SCB 
 470:Libraries/CMSIS/Include/core_cm3.h **** 
 471:Libraries/CMSIS/Include/core_cm3.h **** #define SCB_AIRCR_SYSRESETREQ_Pos           2U                                            /*!< SCB 
 472:Libraries/CMSIS/Include/core_cm3.h **** #define SCB_AIRCR_SYSRESETREQ_Msk          (1UL << SCB_AIRCR_SYSRESETREQ_Pos)             /*!< SCB 
 473:Libraries/CMSIS/Include/core_cm3.h **** 
 474:Libraries/CMSIS/Include/core_cm3.h **** #define SCB_AIRCR_VECTCLRACTIVE_Pos         1U                                            /*!< SCB 
 475:Libraries/CMSIS/Include/core_cm3.h **** #define SCB_AIRCR_VECTCLRACTIVE_Msk        (1UL << SCB_AIRCR_VECTCLRACTIVE_Pos)           /*!< SCB 
 476:Libraries/CMSIS/Include/core_cm3.h **** 
 477:Libraries/CMSIS/Include/core_cm3.h **** #define SCB_AIRCR_VECTRESET_Pos             0U                                            /*!< SCB 
 478:Libraries/CMSIS/Include/core_cm3.h **** #define SCB_AIRCR_VECTRESET_Msk            (1UL /*<< SCB_AIRCR_VECTRESET_Pos*/)           /*!< SCB 
 479:Libraries/CMSIS/Include/core_cm3.h **** 
 480:Libraries/CMSIS/Include/core_cm3.h **** /* SCB System Control Register Definitions */
 481:Libraries/CMSIS/Include/core_cm3.h **** #define SCB_SCR_SEVONPEND_Pos               4U                                            /*!< SCB 
 482:Libraries/CMSIS/Include/core_cm3.h **** #define SCB_SCR_SEVONPEND_Msk              (1UL << SCB_SCR_SEVONPEND_Pos)                 /*!< SCB 
 483:Libraries/CMSIS/Include/core_cm3.h **** 
 484:Libraries/CMSIS/Include/core_cm3.h **** #define SCB_SCR_SLEEPDEEP_Pos               2U                                            /*!< SCB 
 485:Libraries/CMSIS/Include/core_cm3.h **** #define SCB_SCR_SLEEPDEEP_Msk              (1UL << SCB_SCR_SLEEPDEEP_Pos)                 /*!< SCB 
ARM GAS  C:\Users\ADMIN\AppData\Local\Temp\ccIuv89a.s 			page 38


 486:Libraries/CMSIS/Include/core_cm3.h **** 
 487:Libraries/CMSIS/Include/core_cm3.h **** #define SCB_SCR_SLEEPONEXIT_Pos             1U                                            /*!< SCB 
 488:Libraries/CMSIS/Include/core_cm3.h **** #define SCB_SCR_SLEEPONEXIT_Msk            (1UL << SCB_SCR_SLEEPONEXIT_Pos)               /*!< SCB 
 489:Libraries/CMSIS/Include/core_cm3.h **** 
 490:Libraries/CMSIS/Include/core_cm3.h **** /* SCB Configuration Control Register Definitions */
 491:Libraries/CMSIS/Include/core_cm3.h **** #define SCB_CCR_STKALIGN_Pos                9U                                            /*!< SCB 
 492:Libraries/CMSIS/Include/core_cm3.h **** #define SCB_CCR_STKALIGN_Msk               (1UL << SCB_CCR_STKALIGN_Pos)                  /*!< SCB 
 493:Libraries/CMSIS/Include/core_cm3.h **** 
 494:Libraries/CMSIS/Include/core_cm3.h **** #define SCB_CCR_BFHFNMIGN_Pos               8U                                            /*!< SCB 
 495:Libraries/CMSIS/Include/core_cm3.h **** #define SCB_CCR_BFHFNMIGN_Msk              (1UL << SCB_CCR_BFHFNMIGN_Pos)                 /*!< SCB 
 496:Libraries/CMSIS/Include/core_cm3.h **** 
 497:Libraries/CMSIS/Include/core_cm3.h **** #define SCB_CCR_DIV_0_TRP_Pos               4U                                            /*!< SCB 
 498:Libraries/CMSIS/Include/core_cm3.h **** #define SCB_CCR_DIV_0_TRP_Msk              (1UL << SCB_CCR_DIV_0_TRP_Pos)                 /*!< SCB 
 499:Libraries/CMSIS/Include/core_cm3.h **** 
 500:Libraries/CMSIS/Include/core_cm3.h **** #define SCB_CCR_UNALIGN_TRP_Pos             3U                                            /*!< SCB 
 501:Libraries/CMSIS/Include/core_cm3.h **** #define SCB_CCR_UNALIGN_TRP_Msk            (1UL << SCB_CCR_UNALIGN_TRP_Pos)               /*!< SCB 
 502:Libraries/CMSIS/Include/core_cm3.h **** 
 503:Libraries/CMSIS/Include/core_cm3.h **** #define SCB_CCR_USERSETMPEND_Pos            1U                                            /*!< SCB 
 504:Libraries/CMSIS/Include/core_cm3.h **** #define SCB_CCR_USERSETMPEND_Msk           (1UL << SCB_CCR_USERSETMPEND_Pos)              /*!< SCB 
 505:Libraries/CMSIS/Include/core_cm3.h **** 
 506:Libraries/CMSIS/Include/core_cm3.h **** #define SCB_CCR_NONBASETHRDENA_Pos          0U                                            /*!< SCB 
 507:Libraries/CMSIS/Include/core_cm3.h **** #define SCB_CCR_NONBASETHRDENA_Msk         (1UL /*<< SCB_CCR_NONBASETHRDENA_Pos*/)        /*!< SCB 
 508:Libraries/CMSIS/Include/core_cm3.h **** 
 509:Libraries/CMSIS/Include/core_cm3.h **** /* SCB System Handler Control and State Register Definitions */
 510:Libraries/CMSIS/Include/core_cm3.h **** #define SCB_SHCSR_USGFAULTENA_Pos          18U                                            /*!< SCB 
 511:Libraries/CMSIS/Include/core_cm3.h **** #define SCB_SHCSR_USGFAULTENA_Msk          (1UL << SCB_SHCSR_USGFAULTENA_Pos)             /*!< SCB 
 512:Libraries/CMSIS/Include/core_cm3.h **** 
 513:Libraries/CMSIS/Include/core_cm3.h **** #define SCB_SHCSR_BUSFAULTENA_Pos          17U                                            /*!< SCB 
 514:Libraries/CMSIS/Include/core_cm3.h **** #define SCB_SHCSR_BUSFAULTENA_Msk          (1UL << SCB_SHCSR_BUSFAULTENA_Pos)             /*!< SCB 
 515:Libraries/CMSIS/Include/core_cm3.h **** 
 516:Libraries/CMSIS/Include/core_cm3.h **** #define SCB_SHCSR_MEMFAULTENA_Pos          16U                                            /*!< SCB 
 517:Libraries/CMSIS/Include/core_cm3.h **** #define SCB_SHCSR_MEMFAULTENA_Msk          (1UL << SCB_SHCSR_MEMFAULTENA_Pos)             /*!< SCB 
 518:Libraries/CMSIS/Include/core_cm3.h **** 
 519:Libraries/CMSIS/Include/core_cm3.h **** #define SCB_SHCSR_SVCALLPENDED_Pos         15U                                            /*!< SCB 
 520:Libraries/CMSIS/Include/core_cm3.h **** #define SCB_SHCSR_SVCALLPENDED_Msk         (1UL << SCB_SHCSR_SVCALLPENDED_Pos)            /*!< SCB 
 521:Libraries/CMSIS/Include/core_cm3.h **** 
 522:Libraries/CMSIS/Include/core_cm3.h **** #define SCB_SHCSR_BUSFAULTPENDED_Pos       14U                                            /*!< SCB 
 523:Libraries/CMSIS/Include/core_cm3.h **** #define SCB_SHCSR_BUSFAULTPENDED_Msk       (1UL << SCB_SHCSR_BUSFAULTPENDED_Pos)          /*!< SCB 
 524:Libraries/CMSIS/Include/core_cm3.h **** 
 525:Libraries/CMSIS/Include/core_cm3.h **** #define SCB_SHCSR_MEMFAULTPENDED_Pos       13U                                            /*!< SCB 
 526:Libraries/CMSIS/Include/core_cm3.h **** #define SCB_SHCSR_MEMFAULTPENDED_Msk       (1UL << SCB_SHCSR_MEMFAULTPENDED_Pos)          /*!< SCB 
 527:Libraries/CMSIS/Include/core_cm3.h **** 
 528:Libraries/CMSIS/Include/core_cm3.h **** #define SCB_SHCSR_USGFAULTPENDED_Pos       12U                                            /*!< SCB 
 529:Libraries/CMSIS/Include/core_cm3.h **** #define SCB_SHCSR_USGFAULTPENDED_Msk       (1UL << SCB_SHCSR_USGFAULTPENDED_Pos)          /*!< SCB 
 530:Libraries/CMSIS/Include/core_cm3.h **** 
 531:Libraries/CMSIS/Include/core_cm3.h **** #define SCB_SHCSR_SYSTICKACT_Pos           11U                                            /*!< SCB 
 532:Libraries/CMSIS/Include/core_cm3.h **** #define SCB_SHCSR_SYSTICKACT_Msk           (1UL << SCB_SHCSR_SYSTICKACT_Pos)              /*!< SCB 
 533:Libraries/CMSIS/Include/core_cm3.h **** 
 534:Libraries/CMSIS/Include/core_cm3.h **** #define SCB_SHCSR_PENDSVACT_Pos            10U                                            /*!< SCB 
 535:Libraries/CMSIS/Include/core_cm3.h **** #define SCB_SHCSR_PENDSVACT_Msk            (1UL << SCB_SHCSR_PENDSVACT_Pos)               /*!< SCB 
 536:Libraries/CMSIS/Include/core_cm3.h **** 
 537:Libraries/CMSIS/Include/core_cm3.h **** #define SCB_SHCSR_MONITORACT_Pos            8U                                            /*!< SCB 
 538:Libraries/CMSIS/Include/core_cm3.h **** #define SCB_SHCSR_MONITORACT_Msk           (1UL << SCB_SHCSR_MONITORACT_Pos)              /*!< SCB 
 539:Libraries/CMSIS/Include/core_cm3.h **** 
 540:Libraries/CMSIS/Include/core_cm3.h **** #define SCB_SHCSR_SVCALLACT_Pos             7U                                            /*!< SCB 
 541:Libraries/CMSIS/Include/core_cm3.h **** #define SCB_SHCSR_SVCALLACT_Msk            (1UL << SCB_SHCSR_SVCALLACT_Pos)               /*!< SCB 
 542:Libraries/CMSIS/Include/core_cm3.h **** 
ARM GAS  C:\Users\ADMIN\AppData\Local\Temp\ccIuv89a.s 			page 39


 543:Libraries/CMSIS/Include/core_cm3.h **** #define SCB_SHCSR_USGFAULTACT_Pos           3U                                            /*!< SCB 
 544:Libraries/CMSIS/Include/core_cm3.h **** #define SCB_SHCSR_USGFAULTACT_Msk          (1UL << SCB_SHCSR_USGFAULTACT_Pos)             /*!< SCB 
 545:Libraries/CMSIS/Include/core_cm3.h **** 
 546:Libraries/CMSIS/Include/core_cm3.h **** #define SCB_SHCSR_BUSFAULTACT_Pos           1U                                            /*!< SCB 
 547:Libraries/CMSIS/Include/core_cm3.h **** #define SCB_SHCSR_BUSFAULTACT_Msk          (1UL << SCB_SHCSR_BUSFAULTACT_Pos)             /*!< SCB 
 548:Libraries/CMSIS/Include/core_cm3.h **** 
 549:Libraries/CMSIS/Include/core_cm3.h **** #define SCB_SHCSR_MEMFAULTACT_Pos           0U                                            /*!< SCB 
 550:Libraries/CMSIS/Include/core_cm3.h **** #define SCB_SHCSR_MEMFAULTACT_Msk          (1UL /*<< SCB_SHCSR_MEMFAULTACT_Pos*/)         /*!< SCB 
 551:Libraries/CMSIS/Include/core_cm3.h **** 
 552:Libraries/CMSIS/Include/core_cm3.h **** /* SCB Configurable Fault Status Register Definitions */
 553:Libraries/CMSIS/Include/core_cm3.h **** #define SCB_CFSR_USGFAULTSR_Pos            16U                                            /*!< SCB 
 554:Libraries/CMSIS/Include/core_cm3.h **** #define SCB_CFSR_USGFAULTSR_Msk            (0xFFFFUL << SCB_CFSR_USGFAULTSR_Pos)          /*!< SCB 
 555:Libraries/CMSIS/Include/core_cm3.h **** 
 556:Libraries/CMSIS/Include/core_cm3.h **** #define SCB_CFSR_BUSFAULTSR_Pos             8U                                            /*!< SCB 
 557:Libraries/CMSIS/Include/core_cm3.h **** #define SCB_CFSR_BUSFAULTSR_Msk            (0xFFUL << SCB_CFSR_BUSFAULTSR_Pos)            /*!< SCB 
 558:Libraries/CMSIS/Include/core_cm3.h **** 
 559:Libraries/CMSIS/Include/core_cm3.h **** #define SCB_CFSR_MEMFAULTSR_Pos             0U                                            /*!< SCB 
 560:Libraries/CMSIS/Include/core_cm3.h **** #define SCB_CFSR_MEMFAULTSR_Msk            (0xFFUL /*<< SCB_CFSR_MEMFAULTSR_Pos*/)        /*!< SCB 
 561:Libraries/CMSIS/Include/core_cm3.h **** 
 562:Libraries/CMSIS/Include/core_cm3.h **** /* MemManage Fault Status Register (part of SCB Configurable Fault Status Register) */
 563:Libraries/CMSIS/Include/core_cm3.h **** #define SCB_CFSR_MMARVALID_Pos             (SCB_SHCSR_MEMFAULTACT_Pos + 7U)               /*!< SCB 
 564:Libraries/CMSIS/Include/core_cm3.h **** #define SCB_CFSR_MMARVALID_Msk             (1UL << SCB_CFSR_MMARVALID_Pos)                /*!< SCB 
 565:Libraries/CMSIS/Include/core_cm3.h **** 
 566:Libraries/CMSIS/Include/core_cm3.h **** #define SCB_CFSR_MSTKERR_Pos               (SCB_SHCSR_MEMFAULTACT_Pos + 4U)               /*!< SCB 
 567:Libraries/CMSIS/Include/core_cm3.h **** #define SCB_CFSR_MSTKERR_Msk               (1UL << SCB_CFSR_MSTKERR_Pos)                  /*!< SCB 
 568:Libraries/CMSIS/Include/core_cm3.h **** 
 569:Libraries/CMSIS/Include/core_cm3.h **** #define SCB_CFSR_MUNSTKERR_Pos             (SCB_SHCSR_MEMFAULTACT_Pos + 3U)               /*!< SCB 
 570:Libraries/CMSIS/Include/core_cm3.h **** #define SCB_CFSR_MUNSTKERR_Msk             (1UL << SCB_CFSR_MUNSTKERR_Pos)                /*!< SCB 
 571:Libraries/CMSIS/Include/core_cm3.h **** 
 572:Libraries/CMSIS/Include/core_cm3.h **** #define SCB_CFSR_DACCVIOL_Pos              (SCB_SHCSR_MEMFAULTACT_Pos + 1U)               /*!< SCB 
 573:Libraries/CMSIS/Include/core_cm3.h **** #define SCB_CFSR_DACCVIOL_Msk              (1UL << SCB_CFSR_DACCVIOL_Pos)                 /*!< SCB 
 574:Libraries/CMSIS/Include/core_cm3.h **** 
 575:Libraries/CMSIS/Include/core_cm3.h **** #define SCB_CFSR_IACCVIOL_Pos              (SCB_SHCSR_MEMFAULTACT_Pos + 0U)               /*!< SCB 
 576:Libraries/CMSIS/Include/core_cm3.h **** #define SCB_CFSR_IACCVIOL_Msk              (1UL /*<< SCB_CFSR_IACCVIOL_Pos*/)             /*!< SCB 
 577:Libraries/CMSIS/Include/core_cm3.h **** 
 578:Libraries/CMSIS/Include/core_cm3.h **** /* BusFault Status Register (part of SCB Configurable Fault Status Register) */
 579:Libraries/CMSIS/Include/core_cm3.h **** #define SCB_CFSR_BFARVALID_Pos            (SCB_CFSR_BUSFAULTSR_Pos + 7U)                  /*!< SCB 
 580:Libraries/CMSIS/Include/core_cm3.h **** #define SCB_CFSR_BFARVALID_Msk            (1UL << SCB_CFSR_BFARVALID_Pos)                 /*!< SCB 
 581:Libraries/CMSIS/Include/core_cm3.h **** 
 582:Libraries/CMSIS/Include/core_cm3.h **** #define SCB_CFSR_STKERR_Pos               (SCB_CFSR_BUSFAULTSR_Pos + 4U)                  /*!< SCB 
 583:Libraries/CMSIS/Include/core_cm3.h **** #define SCB_CFSR_STKERR_Msk               (1UL << SCB_CFSR_STKERR_Pos)                    /*!< SCB 
 584:Libraries/CMSIS/Include/core_cm3.h **** 
 585:Libraries/CMSIS/Include/core_cm3.h **** #define SCB_CFSR_UNSTKERR_Pos             (SCB_CFSR_BUSFAULTSR_Pos + 3U)                  /*!< SCB 
 586:Libraries/CMSIS/Include/core_cm3.h **** #define SCB_CFSR_UNSTKERR_Msk             (1UL << SCB_CFSR_UNSTKERR_Pos)                  /*!< SCB 
 587:Libraries/CMSIS/Include/core_cm3.h **** 
 588:Libraries/CMSIS/Include/core_cm3.h **** #define SCB_CFSR_IMPRECISERR_Pos          (SCB_CFSR_BUSFAULTSR_Pos + 2U)                  /*!< SCB 
 589:Libraries/CMSIS/Include/core_cm3.h **** #define SCB_CFSR_IMPRECISERR_Msk          (1UL << SCB_CFSR_IMPRECISERR_Pos)               /*!< SCB 
 590:Libraries/CMSIS/Include/core_cm3.h **** 
 591:Libraries/CMSIS/Include/core_cm3.h **** #define SCB_CFSR_PRECISERR_Pos            (SCB_CFSR_BUSFAULTSR_Pos + 1U)                  /*!< SCB 
 592:Libraries/CMSIS/Include/core_cm3.h **** #define SCB_CFSR_PRECISERR_Msk            (1UL << SCB_CFSR_PRECISERR_Pos)                 /*!< SCB 
 593:Libraries/CMSIS/Include/core_cm3.h **** 
 594:Libraries/CMSIS/Include/core_cm3.h **** #define SCB_CFSR_IBUSERR_Pos              (SCB_CFSR_BUSFAULTSR_Pos + 0U)                  /*!< SCB 
 595:Libraries/CMSIS/Include/core_cm3.h **** #define SCB_CFSR_IBUSERR_Msk              (1UL << SCB_CFSR_IBUSERR_Pos)                   /*!< SCB 
 596:Libraries/CMSIS/Include/core_cm3.h **** 
 597:Libraries/CMSIS/Include/core_cm3.h **** /* UsageFault Status Register (part of SCB Configurable Fault Status Register) */
 598:Libraries/CMSIS/Include/core_cm3.h **** #define SCB_CFSR_DIVBYZERO_Pos            (SCB_CFSR_USGFAULTSR_Pos + 9U)                  /*!< SCB 
 599:Libraries/CMSIS/Include/core_cm3.h **** #define SCB_CFSR_DIVBYZERO_Msk            (1UL << SCB_CFSR_DIVBYZERO_Pos)                 /*!< SCB 
ARM GAS  C:\Users\ADMIN\AppData\Local\Temp\ccIuv89a.s 			page 40


 600:Libraries/CMSIS/Include/core_cm3.h **** 
 601:Libraries/CMSIS/Include/core_cm3.h **** #define SCB_CFSR_UNALIGNED_Pos            (SCB_CFSR_USGFAULTSR_Pos + 8U)                  /*!< SCB 
 602:Libraries/CMSIS/Include/core_cm3.h **** #define SCB_CFSR_UNALIGNED_Msk            (1UL << SCB_CFSR_UNALIGNED_Pos)                 /*!< SCB 
 603:Libraries/CMSIS/Include/core_cm3.h **** 
 604:Libraries/CMSIS/Include/core_cm3.h **** #define SCB_CFSR_NOCP_Pos                 (SCB_CFSR_USGFAULTSR_Pos + 3U)                  /*!< SCB 
 605:Libraries/CMSIS/Include/core_cm3.h **** #define SCB_CFSR_NOCP_Msk                 (1UL << SCB_CFSR_NOCP_Pos)                      /*!< SCB 
 606:Libraries/CMSIS/Include/core_cm3.h **** 
 607:Libraries/CMSIS/Include/core_cm3.h **** #define SCB_CFSR_INVPC_Pos                (SCB_CFSR_USGFAULTSR_Pos + 2U)                  /*!< SCB 
 608:Libraries/CMSIS/Include/core_cm3.h **** #define SCB_CFSR_INVPC_Msk                (1UL << SCB_CFSR_INVPC_Pos)                     /*!< SCB 
 609:Libraries/CMSIS/Include/core_cm3.h **** 
 610:Libraries/CMSIS/Include/core_cm3.h **** #define SCB_CFSR_INVSTATE_Pos             (SCB_CFSR_USGFAULTSR_Pos + 1U)                  /*!< SCB 
 611:Libraries/CMSIS/Include/core_cm3.h **** #define SCB_CFSR_INVSTATE_Msk             (1UL << SCB_CFSR_INVSTATE_Pos)                  /*!< SCB 
 612:Libraries/CMSIS/Include/core_cm3.h **** 
 613:Libraries/CMSIS/Include/core_cm3.h **** #define SCB_CFSR_UNDEFINSTR_Pos           (SCB_CFSR_USGFAULTSR_Pos + 0U)                  /*!< SCB 
 614:Libraries/CMSIS/Include/core_cm3.h **** #define SCB_CFSR_UNDEFINSTR_Msk           (1UL << SCB_CFSR_UNDEFINSTR_Pos)                /*!< SCB 
 615:Libraries/CMSIS/Include/core_cm3.h **** 
 616:Libraries/CMSIS/Include/core_cm3.h **** /* SCB Hard Fault Status Register Definitions */
 617:Libraries/CMSIS/Include/core_cm3.h **** #define SCB_HFSR_DEBUGEVT_Pos              31U                                            /*!< SCB 
 618:Libraries/CMSIS/Include/core_cm3.h **** #define SCB_HFSR_DEBUGEVT_Msk              (1UL << SCB_HFSR_DEBUGEVT_Pos)                 /*!< SCB 
 619:Libraries/CMSIS/Include/core_cm3.h **** 
 620:Libraries/CMSIS/Include/core_cm3.h **** #define SCB_HFSR_FORCED_Pos                30U                                            /*!< SCB 
 621:Libraries/CMSIS/Include/core_cm3.h **** #define SCB_HFSR_FORCED_Msk                (1UL << SCB_HFSR_FORCED_Pos)                   /*!< SCB 
 622:Libraries/CMSIS/Include/core_cm3.h **** 
 623:Libraries/CMSIS/Include/core_cm3.h **** #define SCB_HFSR_VECTTBL_Pos                1U                                            /*!< SCB 
 624:Libraries/CMSIS/Include/core_cm3.h **** #define SCB_HFSR_VECTTBL_Msk               (1UL << SCB_HFSR_VECTTBL_Pos)                  /*!< SCB 
 625:Libraries/CMSIS/Include/core_cm3.h **** 
 626:Libraries/CMSIS/Include/core_cm3.h **** /* SCB Debug Fault Status Register Definitions */
 627:Libraries/CMSIS/Include/core_cm3.h **** #define SCB_DFSR_EXTERNAL_Pos               4U                                            /*!< SCB 
 628:Libraries/CMSIS/Include/core_cm3.h **** #define SCB_DFSR_EXTERNAL_Msk              (1UL << SCB_DFSR_EXTERNAL_Pos)                 /*!< SCB 
 629:Libraries/CMSIS/Include/core_cm3.h **** 
 630:Libraries/CMSIS/Include/core_cm3.h **** #define SCB_DFSR_VCATCH_Pos                 3U                                            /*!< SCB 
 631:Libraries/CMSIS/Include/core_cm3.h **** #define SCB_DFSR_VCATCH_Msk                (1UL << SCB_DFSR_VCATCH_Pos)                   /*!< SCB 
 632:Libraries/CMSIS/Include/core_cm3.h **** 
 633:Libraries/CMSIS/Include/core_cm3.h **** #define SCB_DFSR_DWTTRAP_Pos                2U                                            /*!< SCB 
 634:Libraries/CMSIS/Include/core_cm3.h **** #define SCB_DFSR_DWTTRAP_Msk               (1UL << SCB_DFSR_DWTTRAP_Pos)                  /*!< SCB 
 635:Libraries/CMSIS/Include/core_cm3.h **** 
 636:Libraries/CMSIS/Include/core_cm3.h **** #define SCB_DFSR_BKPT_Pos                   1U                                            /*!< SCB 
 637:Libraries/CMSIS/Include/core_cm3.h **** #define SCB_DFSR_BKPT_Msk                  (1UL << SCB_DFSR_BKPT_Pos)                     /*!< SCB 
 638:Libraries/CMSIS/Include/core_cm3.h **** 
 639:Libraries/CMSIS/Include/core_cm3.h **** #define SCB_DFSR_HALTED_Pos                 0U                                            /*!< SCB 
 640:Libraries/CMSIS/Include/core_cm3.h **** #define SCB_DFSR_HALTED_Msk                (1UL /*<< SCB_DFSR_HALTED_Pos*/)               /*!< SCB 
 641:Libraries/CMSIS/Include/core_cm3.h **** 
 642:Libraries/CMSIS/Include/core_cm3.h **** /*@} end of group CMSIS_SCB */
 643:Libraries/CMSIS/Include/core_cm3.h **** 
 644:Libraries/CMSIS/Include/core_cm3.h **** 
 645:Libraries/CMSIS/Include/core_cm3.h **** /**
 646:Libraries/CMSIS/Include/core_cm3.h ****   \ingroup  CMSIS_core_register
 647:Libraries/CMSIS/Include/core_cm3.h ****   \defgroup CMSIS_SCnSCB System Controls not in SCB (SCnSCB)
 648:Libraries/CMSIS/Include/core_cm3.h ****   \brief    Type definitions for the System Control and ID Register not in the SCB
 649:Libraries/CMSIS/Include/core_cm3.h ****   @{
 650:Libraries/CMSIS/Include/core_cm3.h ****  */
 651:Libraries/CMSIS/Include/core_cm3.h **** 
 652:Libraries/CMSIS/Include/core_cm3.h **** /**
 653:Libraries/CMSIS/Include/core_cm3.h ****   \brief  Structure type to access the System Control and ID Register not in the SCB.
 654:Libraries/CMSIS/Include/core_cm3.h ****  */
 655:Libraries/CMSIS/Include/core_cm3.h **** typedef struct
 656:Libraries/CMSIS/Include/core_cm3.h **** {
ARM GAS  C:\Users\ADMIN\AppData\Local\Temp\ccIuv89a.s 			page 41


 657:Libraries/CMSIS/Include/core_cm3.h ****         uint32_t RESERVED0[1U];
 658:Libraries/CMSIS/Include/core_cm3.h ****   __IM  uint32_t ICTR;                   /*!< Offset: 0x004 (R/ )  Interrupt Controller Type Regist
 659:Libraries/CMSIS/Include/core_cm3.h **** #if defined (__CM3_REV) && (__CM3_REV >= 0x200U)
 660:Libraries/CMSIS/Include/core_cm3.h ****   __IOM uint32_t ACTLR;                  /*!< Offset: 0x008 (R/W)  Auxiliary Control Register */
 661:Libraries/CMSIS/Include/core_cm3.h **** #else
 662:Libraries/CMSIS/Include/core_cm3.h ****         uint32_t RESERVED1[1U];
 663:Libraries/CMSIS/Include/core_cm3.h **** #endif
 664:Libraries/CMSIS/Include/core_cm3.h **** } SCnSCB_Type;
 665:Libraries/CMSIS/Include/core_cm3.h **** 
 666:Libraries/CMSIS/Include/core_cm3.h **** /* Interrupt Controller Type Register Definitions */
 667:Libraries/CMSIS/Include/core_cm3.h **** #define SCnSCB_ICTR_INTLINESNUM_Pos         0U                                         /*!< ICTR: I
 668:Libraries/CMSIS/Include/core_cm3.h **** #define SCnSCB_ICTR_INTLINESNUM_Msk        (0xFUL /*<< SCnSCB_ICTR_INTLINESNUM_Pos*/)  /*!< ICTR: I
 669:Libraries/CMSIS/Include/core_cm3.h **** 
 670:Libraries/CMSIS/Include/core_cm3.h **** /* Auxiliary Control Register Definitions */
 671:Libraries/CMSIS/Include/core_cm3.h **** 
 672:Libraries/CMSIS/Include/core_cm3.h **** #define SCnSCB_ACTLR_DISFOLD_Pos            2U                                         /*!< ACTLR: 
 673:Libraries/CMSIS/Include/core_cm3.h **** #define SCnSCB_ACTLR_DISFOLD_Msk           (1UL << SCnSCB_ACTLR_DISFOLD_Pos)           /*!< ACTLR: 
 674:Libraries/CMSIS/Include/core_cm3.h **** 
 675:Libraries/CMSIS/Include/core_cm3.h **** #define SCnSCB_ACTLR_DISDEFWBUF_Pos         1U                                         /*!< ACTLR: 
 676:Libraries/CMSIS/Include/core_cm3.h **** #define SCnSCB_ACTLR_DISDEFWBUF_Msk        (1UL << SCnSCB_ACTLR_DISDEFWBUF_Pos)        /*!< ACTLR: 
 677:Libraries/CMSIS/Include/core_cm3.h **** 
 678:Libraries/CMSIS/Include/core_cm3.h **** #define SCnSCB_ACTLR_DISMCYCINT_Pos         0U                                         /*!< ACTLR: 
 679:Libraries/CMSIS/Include/core_cm3.h **** #define SCnSCB_ACTLR_DISMCYCINT_Msk        (1UL /*<< SCnSCB_ACTLR_DISMCYCINT_Pos*/)    /*!< ACTLR: 
 680:Libraries/CMSIS/Include/core_cm3.h **** 
 681:Libraries/CMSIS/Include/core_cm3.h **** /*@} end of group CMSIS_SCnotSCB */
 682:Libraries/CMSIS/Include/core_cm3.h **** 
 683:Libraries/CMSIS/Include/core_cm3.h **** 
 684:Libraries/CMSIS/Include/core_cm3.h **** /**
 685:Libraries/CMSIS/Include/core_cm3.h ****   \ingroup  CMSIS_core_register
 686:Libraries/CMSIS/Include/core_cm3.h ****   \defgroup CMSIS_SysTick     System Tick Timer (SysTick)
 687:Libraries/CMSIS/Include/core_cm3.h ****   \brief    Type definitions for the System Timer Registers.
 688:Libraries/CMSIS/Include/core_cm3.h ****   @{
 689:Libraries/CMSIS/Include/core_cm3.h ****  */
 690:Libraries/CMSIS/Include/core_cm3.h **** 
 691:Libraries/CMSIS/Include/core_cm3.h **** /**
 692:Libraries/CMSIS/Include/core_cm3.h ****   \brief  Structure type to access the System Timer (SysTick).
 693:Libraries/CMSIS/Include/core_cm3.h ****  */
 694:Libraries/CMSIS/Include/core_cm3.h **** typedef struct
 695:Libraries/CMSIS/Include/core_cm3.h **** {
 696:Libraries/CMSIS/Include/core_cm3.h ****   __IOM uint32_t CTRL;                   /*!< Offset: 0x000 (R/W)  SysTick Control and Status Regis
 697:Libraries/CMSIS/Include/core_cm3.h ****   __IOM uint32_t LOAD;                   /*!< Offset: 0x004 (R/W)  SysTick Reload Value Register */
 698:Libraries/CMSIS/Include/core_cm3.h ****   __IOM uint32_t VAL;                    /*!< Offset: 0x008 (R/W)  SysTick Current Value Register *
 699:Libraries/CMSIS/Include/core_cm3.h ****   __IM  uint32_t CALIB;                  /*!< Offset: 0x00C (R/ )  SysTick Calibration Register */
 700:Libraries/CMSIS/Include/core_cm3.h **** } SysTick_Type;
 701:Libraries/CMSIS/Include/core_cm3.h **** 
 702:Libraries/CMSIS/Include/core_cm3.h **** /* SysTick Control / Status Register Definitions */
 703:Libraries/CMSIS/Include/core_cm3.h **** #define SysTick_CTRL_COUNTFLAG_Pos         16U                                            /*!< SysT
 704:Libraries/CMSIS/Include/core_cm3.h **** #define SysTick_CTRL_COUNTFLAG_Msk         (1UL << SysTick_CTRL_COUNTFLAG_Pos)            /*!< SysT
 705:Libraries/CMSIS/Include/core_cm3.h **** 
 706:Libraries/CMSIS/Include/core_cm3.h **** #define SysTick_CTRL_CLKSOURCE_Pos          2U                                            /*!< SysT
 707:Libraries/CMSIS/Include/core_cm3.h **** #define SysTick_CTRL_CLKSOURCE_Msk         (1UL << SysTick_CTRL_CLKSOURCE_Pos)            /*!< SysT
 708:Libraries/CMSIS/Include/core_cm3.h **** 
 709:Libraries/CMSIS/Include/core_cm3.h **** #define SysTick_CTRL_TICKINT_Pos            1U                                            /*!< SysT
 710:Libraries/CMSIS/Include/core_cm3.h **** #define SysTick_CTRL_TICKINT_Msk           (1UL << SysTick_CTRL_TICKINT_Pos)              /*!< SysT
 711:Libraries/CMSIS/Include/core_cm3.h **** 
 712:Libraries/CMSIS/Include/core_cm3.h **** #define SysTick_CTRL_ENABLE_Pos             0U                                            /*!< SysT
 713:Libraries/CMSIS/Include/core_cm3.h **** #define SysTick_CTRL_ENABLE_Msk            (1UL /*<< SysTick_CTRL_ENABLE_Pos*/)           /*!< SysT
ARM GAS  C:\Users\ADMIN\AppData\Local\Temp\ccIuv89a.s 			page 42


 714:Libraries/CMSIS/Include/core_cm3.h **** 
 715:Libraries/CMSIS/Include/core_cm3.h **** /* SysTick Reload Register Definitions */
 716:Libraries/CMSIS/Include/core_cm3.h **** #define SysTick_LOAD_RELOAD_Pos             0U                                            /*!< SysT
 717:Libraries/CMSIS/Include/core_cm3.h **** #define SysTick_LOAD_RELOAD_Msk            (0xFFFFFFUL /*<< SysTick_LOAD_RELOAD_Pos*/)    /*!< SysT
 718:Libraries/CMSIS/Include/core_cm3.h **** 
 719:Libraries/CMSIS/Include/core_cm3.h **** /* SysTick Current Register Definitions */
 720:Libraries/CMSIS/Include/core_cm3.h **** #define SysTick_VAL_CURRENT_Pos             0U                                            /*!< SysT
 721:Libraries/CMSIS/Include/core_cm3.h **** #define SysTick_VAL_CURRENT_Msk            (0xFFFFFFUL /*<< SysTick_VAL_CURRENT_Pos*/)    /*!< SysT
 722:Libraries/CMSIS/Include/core_cm3.h **** 
 723:Libraries/CMSIS/Include/core_cm3.h **** /* SysTick Calibration Register Definitions */
 724:Libraries/CMSIS/Include/core_cm3.h **** #define SysTick_CALIB_NOREF_Pos            31U                                            /*!< SysT
 725:Libraries/CMSIS/Include/core_cm3.h **** #define SysTick_CALIB_NOREF_Msk            (1UL << SysTick_CALIB_NOREF_Pos)               /*!< SysT
 726:Libraries/CMSIS/Include/core_cm3.h **** 
 727:Libraries/CMSIS/Include/core_cm3.h **** #define SysTick_CALIB_SKEW_Pos             30U                                            /*!< SysT
 728:Libraries/CMSIS/Include/core_cm3.h **** #define SysTick_CALIB_SKEW_Msk             (1UL << SysTick_CALIB_SKEW_Pos)                /*!< SysT
 729:Libraries/CMSIS/Include/core_cm3.h **** 
 730:Libraries/CMSIS/Include/core_cm3.h **** #define SysTick_CALIB_TENMS_Pos             0U                                            /*!< SysT
 731:Libraries/CMSIS/Include/core_cm3.h **** #define SysTick_CALIB_TENMS_Msk            (0xFFFFFFUL /*<< SysTick_CALIB_TENMS_Pos*/)    /*!< SysT
 732:Libraries/CMSIS/Include/core_cm3.h **** 
 733:Libraries/CMSIS/Include/core_cm3.h **** /*@} end of group CMSIS_SysTick */
 734:Libraries/CMSIS/Include/core_cm3.h **** 
 735:Libraries/CMSIS/Include/core_cm3.h **** 
 736:Libraries/CMSIS/Include/core_cm3.h **** /**
 737:Libraries/CMSIS/Include/core_cm3.h ****   \ingroup  CMSIS_core_register
 738:Libraries/CMSIS/Include/core_cm3.h ****   \defgroup CMSIS_ITM     Instrumentation Trace Macrocell (ITM)
 739:Libraries/CMSIS/Include/core_cm3.h ****   \brief    Type definitions for the Instrumentation Trace Macrocell (ITM)
 740:Libraries/CMSIS/Include/core_cm3.h ****   @{
 741:Libraries/CMSIS/Include/core_cm3.h ****  */
 742:Libraries/CMSIS/Include/core_cm3.h **** 
 743:Libraries/CMSIS/Include/core_cm3.h **** /**
 744:Libraries/CMSIS/Include/core_cm3.h ****   \brief  Structure type to access the Instrumentation Trace Macrocell Register (ITM).
 745:Libraries/CMSIS/Include/core_cm3.h ****  */
 746:Libraries/CMSIS/Include/core_cm3.h **** typedef struct
 747:Libraries/CMSIS/Include/core_cm3.h **** {
 748:Libraries/CMSIS/Include/core_cm3.h ****   __OM  union
 749:Libraries/CMSIS/Include/core_cm3.h ****   {
 750:Libraries/CMSIS/Include/core_cm3.h ****     __OM  uint8_t    u8;                 /*!< Offset: 0x000 ( /W)  ITM Stimulus Port 8-bit */
 751:Libraries/CMSIS/Include/core_cm3.h ****     __OM  uint16_t   u16;                /*!< Offset: 0x000 ( /W)  ITM Stimulus Port 16-bit */
 752:Libraries/CMSIS/Include/core_cm3.h ****     __OM  uint32_t   u32;                /*!< Offset: 0x000 ( /W)  ITM Stimulus Port 32-bit */
 753:Libraries/CMSIS/Include/core_cm3.h ****   }  PORT [32U];                         /*!< Offset: 0x000 ( /W)  ITM Stimulus Port Registers */
 754:Libraries/CMSIS/Include/core_cm3.h ****         uint32_t RESERVED0[864U];
 755:Libraries/CMSIS/Include/core_cm3.h ****   __IOM uint32_t TER;                    /*!< Offset: 0xE00 (R/W)  ITM Trace Enable Register */
 756:Libraries/CMSIS/Include/core_cm3.h ****         uint32_t RESERVED1[15U];
 757:Libraries/CMSIS/Include/core_cm3.h ****   __IOM uint32_t TPR;                    /*!< Offset: 0xE40 (R/W)  ITM Trace Privilege Register */
 758:Libraries/CMSIS/Include/core_cm3.h ****         uint32_t RESERVED2[15U];
 759:Libraries/CMSIS/Include/core_cm3.h ****   __IOM uint32_t TCR;                    /*!< Offset: 0xE80 (R/W)  ITM Trace Control Register */
 760:Libraries/CMSIS/Include/core_cm3.h ****         uint32_t RESERVED3[29U];
 761:Libraries/CMSIS/Include/core_cm3.h ****   __OM  uint32_t IWR;                    /*!< Offset: 0xEF8 ( /W)  ITM Integration Write Register *
 762:Libraries/CMSIS/Include/core_cm3.h ****   __IM  uint32_t IRR;                    /*!< Offset: 0xEFC (R/ )  ITM Integration Read Register */
 763:Libraries/CMSIS/Include/core_cm3.h ****   __IOM uint32_t IMCR;                   /*!< Offset: 0xF00 (R/W)  ITM Integration Mode Control Reg
 764:Libraries/CMSIS/Include/core_cm3.h ****         uint32_t RESERVED4[43U];
 765:Libraries/CMSIS/Include/core_cm3.h ****   __OM  uint32_t LAR;                    /*!< Offset: 0xFB0 ( /W)  ITM Lock Access Register */
 766:Libraries/CMSIS/Include/core_cm3.h ****   __IM  uint32_t LSR;                    /*!< Offset: 0xFB4 (R/ )  ITM Lock Status Register */
 767:Libraries/CMSIS/Include/core_cm3.h ****         uint32_t RESERVED5[6U];
 768:Libraries/CMSIS/Include/core_cm3.h ****   __IM  uint32_t PID4;                   /*!< Offset: 0xFD0 (R/ )  ITM Peripheral Identification Re
 769:Libraries/CMSIS/Include/core_cm3.h ****   __IM  uint32_t PID5;                   /*!< Offset: 0xFD4 (R/ )  ITM Peripheral Identification Re
 770:Libraries/CMSIS/Include/core_cm3.h ****   __IM  uint32_t PID6;                   /*!< Offset: 0xFD8 (R/ )  ITM Peripheral Identification Re
ARM GAS  C:\Users\ADMIN\AppData\Local\Temp\ccIuv89a.s 			page 43


 771:Libraries/CMSIS/Include/core_cm3.h ****   __IM  uint32_t PID7;                   /*!< Offset: 0xFDC (R/ )  ITM Peripheral Identification Re
 772:Libraries/CMSIS/Include/core_cm3.h ****   __IM  uint32_t PID0;                   /*!< Offset: 0xFE0 (R/ )  ITM Peripheral Identification Re
 773:Libraries/CMSIS/Include/core_cm3.h ****   __IM  uint32_t PID1;                   /*!< Offset: 0xFE4 (R/ )  ITM Peripheral Identification Re
 774:Libraries/CMSIS/Include/core_cm3.h ****   __IM  uint32_t PID2;                   /*!< Offset: 0xFE8 (R/ )  ITM Peripheral Identification Re
 775:Libraries/CMSIS/Include/core_cm3.h ****   __IM  uint32_t PID3;                   /*!< Offset: 0xFEC (R/ )  ITM Peripheral Identification Re
 776:Libraries/CMSIS/Include/core_cm3.h ****   __IM  uint32_t CID0;                   /*!< Offset: 0xFF0 (R/ )  ITM Component  Identification Re
 777:Libraries/CMSIS/Include/core_cm3.h ****   __IM  uint32_t CID1;                   /*!< Offset: 0xFF4 (R/ )  ITM Component  Identification Re
 778:Libraries/CMSIS/Include/core_cm3.h ****   __IM  uint32_t CID2;                   /*!< Offset: 0xFF8 (R/ )  ITM Component  Identification Re
 779:Libraries/CMSIS/Include/core_cm3.h ****   __IM  uint32_t CID3;                   /*!< Offset: 0xFFC (R/ )  ITM Component  Identification Re
 780:Libraries/CMSIS/Include/core_cm3.h **** } ITM_Type;
 781:Libraries/CMSIS/Include/core_cm3.h **** 
 782:Libraries/CMSIS/Include/core_cm3.h **** /* ITM Trace Privilege Register Definitions */
 783:Libraries/CMSIS/Include/core_cm3.h **** #define ITM_TPR_PRIVMASK_Pos                0U                                            /*!< ITM 
 784:Libraries/CMSIS/Include/core_cm3.h **** #define ITM_TPR_PRIVMASK_Msk               (0xFFFFFFFFUL /*<< ITM_TPR_PRIVMASK_Pos*/)     /*!< ITM 
 785:Libraries/CMSIS/Include/core_cm3.h **** 
 786:Libraries/CMSIS/Include/core_cm3.h **** /* ITM Trace Control Register Definitions */
 787:Libraries/CMSIS/Include/core_cm3.h **** #define ITM_TCR_BUSY_Pos                   23U                                            /*!< ITM 
 788:Libraries/CMSIS/Include/core_cm3.h **** #define ITM_TCR_BUSY_Msk                   (1UL << ITM_TCR_BUSY_Pos)                      /*!< ITM 
 789:Libraries/CMSIS/Include/core_cm3.h **** 
 790:Libraries/CMSIS/Include/core_cm3.h **** #define ITM_TCR_TraceBusID_Pos             16U                                            /*!< ITM 
 791:Libraries/CMSIS/Include/core_cm3.h **** #define ITM_TCR_TraceBusID_Msk             (0x7FUL << ITM_TCR_TraceBusID_Pos)             /*!< ITM 
 792:Libraries/CMSIS/Include/core_cm3.h **** 
 793:Libraries/CMSIS/Include/core_cm3.h **** #define ITM_TCR_GTSFREQ_Pos                10U                                            /*!< ITM 
 794:Libraries/CMSIS/Include/core_cm3.h **** #define ITM_TCR_GTSFREQ_Msk                (3UL << ITM_TCR_GTSFREQ_Pos)                   /*!< ITM 
 795:Libraries/CMSIS/Include/core_cm3.h **** 
 796:Libraries/CMSIS/Include/core_cm3.h **** #define ITM_TCR_TSPrescale_Pos              8U                                            /*!< ITM 
 797:Libraries/CMSIS/Include/core_cm3.h **** #define ITM_TCR_TSPrescale_Msk             (3UL << ITM_TCR_TSPrescale_Pos)                /*!< ITM 
 798:Libraries/CMSIS/Include/core_cm3.h **** 
 799:Libraries/CMSIS/Include/core_cm3.h **** #define ITM_TCR_SWOENA_Pos                  4U                                            /*!< ITM 
 800:Libraries/CMSIS/Include/core_cm3.h **** #define ITM_TCR_SWOENA_Msk                 (1UL << ITM_TCR_SWOENA_Pos)                    /*!< ITM 
 801:Libraries/CMSIS/Include/core_cm3.h **** 
 802:Libraries/CMSIS/Include/core_cm3.h **** #define ITM_TCR_DWTENA_Pos                  3U                                            /*!< ITM 
 803:Libraries/CMSIS/Include/core_cm3.h **** #define ITM_TCR_DWTENA_Msk                 (1UL << ITM_TCR_DWTENA_Pos)                    /*!< ITM 
 804:Libraries/CMSIS/Include/core_cm3.h **** 
 805:Libraries/CMSIS/Include/core_cm3.h **** #define ITM_TCR_SYNCENA_Pos                 2U                                            /*!< ITM 
 806:Libraries/CMSIS/Include/core_cm3.h **** #define ITM_TCR_SYNCENA_Msk                (1UL << ITM_TCR_SYNCENA_Pos)                   /*!< ITM 
 807:Libraries/CMSIS/Include/core_cm3.h **** 
 808:Libraries/CMSIS/Include/core_cm3.h **** #define ITM_TCR_TSENA_Pos                   1U                                            /*!< ITM 
 809:Libraries/CMSIS/Include/core_cm3.h **** #define ITM_TCR_TSENA_Msk                  (1UL << ITM_TCR_TSENA_Pos)                     /*!< ITM 
 810:Libraries/CMSIS/Include/core_cm3.h **** 
 811:Libraries/CMSIS/Include/core_cm3.h **** #define ITM_TCR_ITMENA_Pos                  0U                                            /*!< ITM 
 812:Libraries/CMSIS/Include/core_cm3.h **** #define ITM_TCR_ITMENA_Msk                 (1UL /*<< ITM_TCR_ITMENA_Pos*/)                /*!< ITM 
 813:Libraries/CMSIS/Include/core_cm3.h **** 
 814:Libraries/CMSIS/Include/core_cm3.h **** /* ITM Integration Write Register Definitions */
 815:Libraries/CMSIS/Include/core_cm3.h **** #define ITM_IWR_ATVALIDM_Pos                0U                                            /*!< ITM 
 816:Libraries/CMSIS/Include/core_cm3.h **** #define ITM_IWR_ATVALIDM_Msk               (1UL /*<< ITM_IWR_ATVALIDM_Pos*/)              /*!< ITM 
 817:Libraries/CMSIS/Include/core_cm3.h **** 
 818:Libraries/CMSIS/Include/core_cm3.h **** /* ITM Integration Read Register Definitions */
 819:Libraries/CMSIS/Include/core_cm3.h **** #define ITM_IRR_ATREADYM_Pos                0U                                            /*!< ITM 
 820:Libraries/CMSIS/Include/core_cm3.h **** #define ITM_IRR_ATREADYM_Msk               (1UL /*<< ITM_IRR_ATREADYM_Pos*/)              /*!< ITM 
 821:Libraries/CMSIS/Include/core_cm3.h **** 
 822:Libraries/CMSIS/Include/core_cm3.h **** /* ITM Integration Mode Control Register Definitions */
 823:Libraries/CMSIS/Include/core_cm3.h **** #define ITM_IMCR_INTEGRATION_Pos            0U                                            /*!< ITM 
 824:Libraries/CMSIS/Include/core_cm3.h **** #define ITM_IMCR_INTEGRATION_Msk           (1UL /*<< ITM_IMCR_INTEGRATION_Pos*/)          /*!< ITM 
 825:Libraries/CMSIS/Include/core_cm3.h **** 
 826:Libraries/CMSIS/Include/core_cm3.h **** /* ITM Lock Status Register Definitions */
 827:Libraries/CMSIS/Include/core_cm3.h **** #define ITM_LSR_ByteAcc_Pos                 2U                                            /*!< ITM 
ARM GAS  C:\Users\ADMIN\AppData\Local\Temp\ccIuv89a.s 			page 44


 828:Libraries/CMSIS/Include/core_cm3.h **** #define ITM_LSR_ByteAcc_Msk                (1UL << ITM_LSR_ByteAcc_Pos)                   /*!< ITM 
 829:Libraries/CMSIS/Include/core_cm3.h **** 
 830:Libraries/CMSIS/Include/core_cm3.h **** #define ITM_LSR_Access_Pos                  1U                                            /*!< ITM 
 831:Libraries/CMSIS/Include/core_cm3.h **** #define ITM_LSR_Access_Msk                 (1UL << ITM_LSR_Access_Pos)                    /*!< ITM 
 832:Libraries/CMSIS/Include/core_cm3.h **** 
 833:Libraries/CMSIS/Include/core_cm3.h **** #define ITM_LSR_Present_Pos                 0U                                            /*!< ITM 
 834:Libraries/CMSIS/Include/core_cm3.h **** #define ITM_LSR_Present_Msk                (1UL /*<< ITM_LSR_Present_Pos*/)               /*!< ITM 
 835:Libraries/CMSIS/Include/core_cm3.h **** 
 836:Libraries/CMSIS/Include/core_cm3.h **** /*@}*/ /* end of group CMSIS_ITM */
 837:Libraries/CMSIS/Include/core_cm3.h **** 
 838:Libraries/CMSIS/Include/core_cm3.h **** 
 839:Libraries/CMSIS/Include/core_cm3.h **** /**
 840:Libraries/CMSIS/Include/core_cm3.h ****   \ingroup  CMSIS_core_register
 841:Libraries/CMSIS/Include/core_cm3.h ****   \defgroup CMSIS_DWT     Data Watchpoint and Trace (DWT)
 842:Libraries/CMSIS/Include/core_cm3.h ****   \brief    Type definitions for the Data Watchpoint and Trace (DWT)
 843:Libraries/CMSIS/Include/core_cm3.h ****   @{
 844:Libraries/CMSIS/Include/core_cm3.h ****  */
 845:Libraries/CMSIS/Include/core_cm3.h **** 
 846:Libraries/CMSIS/Include/core_cm3.h **** /**
 847:Libraries/CMSIS/Include/core_cm3.h ****   \brief  Structure type to access the Data Watchpoint and Trace Register (DWT).
 848:Libraries/CMSIS/Include/core_cm3.h ****  */
 849:Libraries/CMSIS/Include/core_cm3.h **** typedef struct
 850:Libraries/CMSIS/Include/core_cm3.h **** {
 851:Libraries/CMSIS/Include/core_cm3.h ****   __IOM uint32_t CTRL;                   /*!< Offset: 0x000 (R/W)  Control Register */
 852:Libraries/CMSIS/Include/core_cm3.h ****   __IOM uint32_t CYCCNT;                 /*!< Offset: 0x004 (R/W)  Cycle Count Register */
 853:Libraries/CMSIS/Include/core_cm3.h ****   __IOM uint32_t CPICNT;                 /*!< Offset: 0x008 (R/W)  CPI Count Register */
 854:Libraries/CMSIS/Include/core_cm3.h ****   __IOM uint32_t EXCCNT;                 /*!< Offset: 0x00C (R/W)  Exception Overhead Count Registe
 855:Libraries/CMSIS/Include/core_cm3.h ****   __IOM uint32_t SLEEPCNT;               /*!< Offset: 0x010 (R/W)  Sleep Count Register */
 856:Libraries/CMSIS/Include/core_cm3.h ****   __IOM uint32_t LSUCNT;                 /*!< Offset: 0x014 (R/W)  LSU Count Register */
 857:Libraries/CMSIS/Include/core_cm3.h ****   __IOM uint32_t FOLDCNT;                /*!< Offset: 0x018 (R/W)  Folded-instruction Count Registe
 858:Libraries/CMSIS/Include/core_cm3.h ****   __IM  uint32_t PCSR;                   /*!< Offset: 0x01C (R/ )  Program Counter Sample Register 
 859:Libraries/CMSIS/Include/core_cm3.h ****   __IOM uint32_t COMP0;                  /*!< Offset: 0x020 (R/W)  Comparator Register 0 */
 860:Libraries/CMSIS/Include/core_cm3.h ****   __IOM uint32_t MASK0;                  /*!< Offset: 0x024 (R/W)  Mask Register 0 */
 861:Libraries/CMSIS/Include/core_cm3.h ****   __IOM uint32_t FUNCTION0;              /*!< Offset: 0x028 (R/W)  Function Register 0 */
 862:Libraries/CMSIS/Include/core_cm3.h ****         uint32_t RESERVED0[1U];
 863:Libraries/CMSIS/Include/core_cm3.h ****   __IOM uint32_t COMP1;                  /*!< Offset: 0x030 (R/W)  Comparator Register 1 */
 864:Libraries/CMSIS/Include/core_cm3.h ****   __IOM uint32_t MASK1;                  /*!< Offset: 0x034 (R/W)  Mask Register 1 */
 865:Libraries/CMSIS/Include/core_cm3.h ****   __IOM uint32_t FUNCTION1;              /*!< Offset: 0x038 (R/W)  Function Register 1 */
 866:Libraries/CMSIS/Include/core_cm3.h ****         uint32_t RESERVED1[1U];
 867:Libraries/CMSIS/Include/core_cm3.h ****   __IOM uint32_t COMP2;                  /*!< Offset: 0x040 (R/W)  Comparator Register 2 */
 868:Libraries/CMSIS/Include/core_cm3.h ****   __IOM uint32_t MASK2;                  /*!< Offset: 0x044 (R/W)  Mask Register 2 */
 869:Libraries/CMSIS/Include/core_cm3.h ****   __IOM uint32_t FUNCTION2;              /*!< Offset: 0x048 (R/W)  Function Register 2 */
 870:Libraries/CMSIS/Include/core_cm3.h ****         uint32_t RESERVED2[1U];
 871:Libraries/CMSIS/Include/core_cm3.h ****   __IOM uint32_t COMP3;                  /*!< Offset: 0x050 (R/W)  Comparator Register 3 */
 872:Libraries/CMSIS/Include/core_cm3.h ****   __IOM uint32_t MASK3;                  /*!< Offset: 0x054 (R/W)  Mask Register 3 */
 873:Libraries/CMSIS/Include/core_cm3.h ****   __IOM uint32_t FUNCTION3;              /*!< Offset: 0x058 (R/W)  Function Register 3 */
 874:Libraries/CMSIS/Include/core_cm3.h **** } DWT_Type;
 875:Libraries/CMSIS/Include/core_cm3.h **** 
 876:Libraries/CMSIS/Include/core_cm3.h **** /* DWT Control Register Definitions */
 877:Libraries/CMSIS/Include/core_cm3.h **** #define DWT_CTRL_NUMCOMP_Pos               28U                                         /*!< DWT CTR
 878:Libraries/CMSIS/Include/core_cm3.h **** #define DWT_CTRL_NUMCOMP_Msk               (0xFUL << DWT_CTRL_NUMCOMP_Pos)             /*!< DWT CTR
 879:Libraries/CMSIS/Include/core_cm3.h **** 
 880:Libraries/CMSIS/Include/core_cm3.h **** #define DWT_CTRL_NOTRCPKT_Pos              27U                                         /*!< DWT CTR
 881:Libraries/CMSIS/Include/core_cm3.h **** #define DWT_CTRL_NOTRCPKT_Msk              (0x1UL << DWT_CTRL_NOTRCPKT_Pos)            /*!< DWT CTR
 882:Libraries/CMSIS/Include/core_cm3.h **** 
 883:Libraries/CMSIS/Include/core_cm3.h **** #define DWT_CTRL_NOEXTTRIG_Pos             26U                                         /*!< DWT CTR
 884:Libraries/CMSIS/Include/core_cm3.h **** #define DWT_CTRL_NOEXTTRIG_Msk             (0x1UL << DWT_CTRL_NOEXTTRIG_Pos)           /*!< DWT CTR
ARM GAS  C:\Users\ADMIN\AppData\Local\Temp\ccIuv89a.s 			page 45


 885:Libraries/CMSIS/Include/core_cm3.h **** 
 886:Libraries/CMSIS/Include/core_cm3.h **** #define DWT_CTRL_NOCYCCNT_Pos              25U                                         /*!< DWT CTR
 887:Libraries/CMSIS/Include/core_cm3.h **** #define DWT_CTRL_NOCYCCNT_Msk              (0x1UL << DWT_CTRL_NOCYCCNT_Pos)            /*!< DWT CTR
 888:Libraries/CMSIS/Include/core_cm3.h **** 
 889:Libraries/CMSIS/Include/core_cm3.h **** #define DWT_CTRL_NOPRFCNT_Pos              24U                                         /*!< DWT CTR
 890:Libraries/CMSIS/Include/core_cm3.h **** #define DWT_CTRL_NOPRFCNT_Msk              (0x1UL << DWT_CTRL_NOPRFCNT_Pos)            /*!< DWT CTR
 891:Libraries/CMSIS/Include/core_cm3.h **** 
 892:Libraries/CMSIS/Include/core_cm3.h **** #define DWT_CTRL_CYCEVTENA_Pos             22U                                         /*!< DWT CTR
 893:Libraries/CMSIS/Include/core_cm3.h **** #define DWT_CTRL_CYCEVTENA_Msk             (0x1UL << DWT_CTRL_CYCEVTENA_Pos)           /*!< DWT CTR
 894:Libraries/CMSIS/Include/core_cm3.h **** 
 895:Libraries/CMSIS/Include/core_cm3.h **** #define DWT_CTRL_FOLDEVTENA_Pos            21U                                         /*!< DWT CTR
 896:Libraries/CMSIS/Include/core_cm3.h **** #define DWT_CTRL_FOLDEVTENA_Msk            (0x1UL << DWT_CTRL_FOLDEVTENA_Pos)          /*!< DWT CTR
 897:Libraries/CMSIS/Include/core_cm3.h **** 
 898:Libraries/CMSIS/Include/core_cm3.h **** #define DWT_CTRL_LSUEVTENA_Pos             20U                                         /*!< DWT CTR
 899:Libraries/CMSIS/Include/core_cm3.h **** #define DWT_CTRL_LSUEVTENA_Msk             (0x1UL << DWT_CTRL_LSUEVTENA_Pos)           /*!< DWT CTR
 900:Libraries/CMSIS/Include/core_cm3.h **** 
 901:Libraries/CMSIS/Include/core_cm3.h **** #define DWT_CTRL_SLEEPEVTENA_Pos           19U                                         /*!< DWT CTR
 902:Libraries/CMSIS/Include/core_cm3.h **** #define DWT_CTRL_SLEEPEVTENA_Msk           (0x1UL << DWT_CTRL_SLEEPEVTENA_Pos)         /*!< DWT CTR
 903:Libraries/CMSIS/Include/core_cm3.h **** 
 904:Libraries/CMSIS/Include/core_cm3.h **** #define DWT_CTRL_EXCEVTENA_Pos             18U                                         /*!< DWT CTR
 905:Libraries/CMSIS/Include/core_cm3.h **** #define DWT_CTRL_EXCEVTENA_Msk             (0x1UL << DWT_CTRL_EXCEVTENA_Pos)           /*!< DWT CTR
 906:Libraries/CMSIS/Include/core_cm3.h **** 
 907:Libraries/CMSIS/Include/core_cm3.h **** #define DWT_CTRL_CPIEVTENA_Pos             17U                                         /*!< DWT CTR
 908:Libraries/CMSIS/Include/core_cm3.h **** #define DWT_CTRL_CPIEVTENA_Msk             (0x1UL << DWT_CTRL_CPIEVTENA_Pos)           /*!< DWT CTR
 909:Libraries/CMSIS/Include/core_cm3.h **** 
 910:Libraries/CMSIS/Include/core_cm3.h **** #define DWT_CTRL_EXCTRCENA_Pos             16U                                         /*!< DWT CTR
 911:Libraries/CMSIS/Include/core_cm3.h **** #define DWT_CTRL_EXCTRCENA_Msk             (0x1UL << DWT_CTRL_EXCTRCENA_Pos)           /*!< DWT CTR
 912:Libraries/CMSIS/Include/core_cm3.h **** 
 913:Libraries/CMSIS/Include/core_cm3.h **** #define DWT_CTRL_PCSAMPLENA_Pos            12U                                         /*!< DWT CTR
 914:Libraries/CMSIS/Include/core_cm3.h **** #define DWT_CTRL_PCSAMPLENA_Msk            (0x1UL << DWT_CTRL_PCSAMPLENA_Pos)          /*!< DWT CTR
 915:Libraries/CMSIS/Include/core_cm3.h **** 
 916:Libraries/CMSIS/Include/core_cm3.h **** #define DWT_CTRL_SYNCTAP_Pos               10U                                         /*!< DWT CTR
 917:Libraries/CMSIS/Include/core_cm3.h **** #define DWT_CTRL_SYNCTAP_Msk               (0x3UL << DWT_CTRL_SYNCTAP_Pos)             /*!< DWT CTR
 918:Libraries/CMSIS/Include/core_cm3.h **** 
 919:Libraries/CMSIS/Include/core_cm3.h **** #define DWT_CTRL_CYCTAP_Pos                 9U                                         /*!< DWT CTR
 920:Libraries/CMSIS/Include/core_cm3.h **** #define DWT_CTRL_CYCTAP_Msk                (0x1UL << DWT_CTRL_CYCTAP_Pos)              /*!< DWT CTR
 921:Libraries/CMSIS/Include/core_cm3.h **** 
 922:Libraries/CMSIS/Include/core_cm3.h **** #define DWT_CTRL_POSTINIT_Pos               5U                                         /*!< DWT CTR
 923:Libraries/CMSIS/Include/core_cm3.h **** #define DWT_CTRL_POSTINIT_Msk              (0xFUL << DWT_CTRL_POSTINIT_Pos)            /*!< DWT CTR
 924:Libraries/CMSIS/Include/core_cm3.h **** 
 925:Libraries/CMSIS/Include/core_cm3.h **** #define DWT_CTRL_POSTPRESET_Pos             1U                                         /*!< DWT CTR
 926:Libraries/CMSIS/Include/core_cm3.h **** #define DWT_CTRL_POSTPRESET_Msk            (0xFUL << DWT_CTRL_POSTPRESET_Pos)          /*!< DWT CTR
 927:Libraries/CMSIS/Include/core_cm3.h **** 
 928:Libraries/CMSIS/Include/core_cm3.h **** #define DWT_CTRL_CYCCNTENA_Pos              0U                                         /*!< DWT CTR
 929:Libraries/CMSIS/Include/core_cm3.h **** #define DWT_CTRL_CYCCNTENA_Msk             (0x1UL /*<< DWT_CTRL_CYCCNTENA_Pos*/)       /*!< DWT CTR
 930:Libraries/CMSIS/Include/core_cm3.h **** 
 931:Libraries/CMSIS/Include/core_cm3.h **** /* DWT CPI Count Register Definitions */
 932:Libraries/CMSIS/Include/core_cm3.h **** #define DWT_CPICNT_CPICNT_Pos               0U                                         /*!< DWT CPI
 933:Libraries/CMSIS/Include/core_cm3.h **** #define DWT_CPICNT_CPICNT_Msk              (0xFFUL /*<< DWT_CPICNT_CPICNT_Pos*/)       /*!< DWT CPI
 934:Libraries/CMSIS/Include/core_cm3.h **** 
 935:Libraries/CMSIS/Include/core_cm3.h **** /* DWT Exception Overhead Count Register Definitions */
 936:Libraries/CMSIS/Include/core_cm3.h **** #define DWT_EXCCNT_EXCCNT_Pos               0U                                         /*!< DWT EXC
 937:Libraries/CMSIS/Include/core_cm3.h **** #define DWT_EXCCNT_EXCCNT_Msk              (0xFFUL /*<< DWT_EXCCNT_EXCCNT_Pos*/)       /*!< DWT EXC
 938:Libraries/CMSIS/Include/core_cm3.h **** 
 939:Libraries/CMSIS/Include/core_cm3.h **** /* DWT Sleep Count Register Definitions */
 940:Libraries/CMSIS/Include/core_cm3.h **** #define DWT_SLEEPCNT_SLEEPCNT_Pos           0U                                         /*!< DWT SLE
 941:Libraries/CMSIS/Include/core_cm3.h **** #define DWT_SLEEPCNT_SLEEPCNT_Msk          (0xFFUL /*<< DWT_SLEEPCNT_SLEEPCNT_Pos*/)   /*!< DWT SLE
ARM GAS  C:\Users\ADMIN\AppData\Local\Temp\ccIuv89a.s 			page 46


 942:Libraries/CMSIS/Include/core_cm3.h **** 
 943:Libraries/CMSIS/Include/core_cm3.h **** /* DWT LSU Count Register Definitions */
 944:Libraries/CMSIS/Include/core_cm3.h **** #define DWT_LSUCNT_LSUCNT_Pos               0U                                         /*!< DWT LSU
 945:Libraries/CMSIS/Include/core_cm3.h **** #define DWT_LSUCNT_LSUCNT_Msk              (0xFFUL /*<< DWT_LSUCNT_LSUCNT_Pos*/)       /*!< DWT LSU
 946:Libraries/CMSIS/Include/core_cm3.h **** 
 947:Libraries/CMSIS/Include/core_cm3.h **** /* DWT Folded-instruction Count Register Definitions */
 948:Libraries/CMSIS/Include/core_cm3.h **** #define DWT_FOLDCNT_FOLDCNT_Pos             0U                                         /*!< DWT FOL
 949:Libraries/CMSIS/Include/core_cm3.h **** #define DWT_FOLDCNT_FOLDCNT_Msk            (0xFFUL /*<< DWT_FOLDCNT_FOLDCNT_Pos*/)     /*!< DWT FOL
 950:Libraries/CMSIS/Include/core_cm3.h **** 
 951:Libraries/CMSIS/Include/core_cm3.h **** /* DWT Comparator Mask Register Definitions */
 952:Libraries/CMSIS/Include/core_cm3.h **** #define DWT_MASK_MASK_Pos                   0U                                         /*!< DWT MAS
 953:Libraries/CMSIS/Include/core_cm3.h **** #define DWT_MASK_MASK_Msk                  (0x1FUL /*<< DWT_MASK_MASK_Pos*/)           /*!< DWT MAS
 954:Libraries/CMSIS/Include/core_cm3.h **** 
 955:Libraries/CMSIS/Include/core_cm3.h **** /* DWT Comparator Function Register Definitions */
 956:Libraries/CMSIS/Include/core_cm3.h **** #define DWT_FUNCTION_MATCHED_Pos           24U                                         /*!< DWT FUN
 957:Libraries/CMSIS/Include/core_cm3.h **** #define DWT_FUNCTION_MATCHED_Msk           (0x1UL << DWT_FUNCTION_MATCHED_Pos)         /*!< DWT FUN
 958:Libraries/CMSIS/Include/core_cm3.h **** 
 959:Libraries/CMSIS/Include/core_cm3.h **** #define DWT_FUNCTION_DATAVADDR1_Pos        16U                                         /*!< DWT FUN
 960:Libraries/CMSIS/Include/core_cm3.h **** #define DWT_FUNCTION_DATAVADDR1_Msk        (0xFUL << DWT_FUNCTION_DATAVADDR1_Pos)      /*!< DWT FUN
 961:Libraries/CMSIS/Include/core_cm3.h **** 
 962:Libraries/CMSIS/Include/core_cm3.h **** #define DWT_FUNCTION_DATAVADDR0_Pos        12U                                         /*!< DWT FUN
 963:Libraries/CMSIS/Include/core_cm3.h **** #define DWT_FUNCTION_DATAVADDR0_Msk        (0xFUL << DWT_FUNCTION_DATAVADDR0_Pos)      /*!< DWT FUN
 964:Libraries/CMSIS/Include/core_cm3.h **** 
 965:Libraries/CMSIS/Include/core_cm3.h **** #define DWT_FUNCTION_DATAVSIZE_Pos         10U                                         /*!< DWT FUN
 966:Libraries/CMSIS/Include/core_cm3.h **** #define DWT_FUNCTION_DATAVSIZE_Msk         (0x3UL << DWT_FUNCTION_DATAVSIZE_Pos)       /*!< DWT FUN
 967:Libraries/CMSIS/Include/core_cm3.h **** 
 968:Libraries/CMSIS/Include/core_cm3.h **** #define DWT_FUNCTION_LNK1ENA_Pos            9U                                         /*!< DWT FUN
 969:Libraries/CMSIS/Include/core_cm3.h **** #define DWT_FUNCTION_LNK1ENA_Msk           (0x1UL << DWT_FUNCTION_LNK1ENA_Pos)         /*!< DWT FUN
 970:Libraries/CMSIS/Include/core_cm3.h **** 
 971:Libraries/CMSIS/Include/core_cm3.h **** #define DWT_FUNCTION_DATAVMATCH_Pos         8U                                         /*!< DWT FUN
 972:Libraries/CMSIS/Include/core_cm3.h **** #define DWT_FUNCTION_DATAVMATCH_Msk        (0x1UL << DWT_FUNCTION_DATAVMATCH_Pos)      /*!< DWT FUN
 973:Libraries/CMSIS/Include/core_cm3.h **** 
 974:Libraries/CMSIS/Include/core_cm3.h **** #define DWT_FUNCTION_CYCMATCH_Pos           7U                                         /*!< DWT FUN
 975:Libraries/CMSIS/Include/core_cm3.h **** #define DWT_FUNCTION_CYCMATCH_Msk          (0x1UL << DWT_FUNCTION_CYCMATCH_Pos)        /*!< DWT FUN
 976:Libraries/CMSIS/Include/core_cm3.h **** 
 977:Libraries/CMSIS/Include/core_cm3.h **** #define DWT_FUNCTION_EMITRANGE_Pos          5U                                         /*!< DWT FUN
 978:Libraries/CMSIS/Include/core_cm3.h **** #define DWT_FUNCTION_EMITRANGE_Msk         (0x1UL << DWT_FUNCTION_EMITRANGE_Pos)       /*!< DWT FUN
 979:Libraries/CMSIS/Include/core_cm3.h **** 
 980:Libraries/CMSIS/Include/core_cm3.h **** #define DWT_FUNCTION_FUNCTION_Pos           0U                                         /*!< DWT FUN
 981:Libraries/CMSIS/Include/core_cm3.h **** #define DWT_FUNCTION_FUNCTION_Msk          (0xFUL /*<< DWT_FUNCTION_FUNCTION_Pos*/)    /*!< DWT FUN
 982:Libraries/CMSIS/Include/core_cm3.h **** 
 983:Libraries/CMSIS/Include/core_cm3.h **** /*@}*/ /* end of group CMSIS_DWT */
 984:Libraries/CMSIS/Include/core_cm3.h **** 
 985:Libraries/CMSIS/Include/core_cm3.h **** 
 986:Libraries/CMSIS/Include/core_cm3.h **** /**
 987:Libraries/CMSIS/Include/core_cm3.h ****   \ingroup  CMSIS_core_register
 988:Libraries/CMSIS/Include/core_cm3.h ****   \defgroup CMSIS_TPI     Trace Port Interface (TPI)
 989:Libraries/CMSIS/Include/core_cm3.h ****   \brief    Type definitions for the Trace Port Interface (TPI)
 990:Libraries/CMSIS/Include/core_cm3.h ****   @{
 991:Libraries/CMSIS/Include/core_cm3.h ****  */
 992:Libraries/CMSIS/Include/core_cm3.h **** 
 993:Libraries/CMSIS/Include/core_cm3.h **** /**
 994:Libraries/CMSIS/Include/core_cm3.h ****   \brief  Structure type to access the Trace Port Interface Register (TPI).
 995:Libraries/CMSIS/Include/core_cm3.h ****  */
 996:Libraries/CMSIS/Include/core_cm3.h **** typedef struct
 997:Libraries/CMSIS/Include/core_cm3.h **** {
 998:Libraries/CMSIS/Include/core_cm3.h ****   __IM  uint32_t SSPSR;                  /*!< Offset: 0x000 (R/ )  Supported Parallel Port Size Reg
ARM GAS  C:\Users\ADMIN\AppData\Local\Temp\ccIuv89a.s 			page 47


 999:Libraries/CMSIS/Include/core_cm3.h ****   __IOM uint32_t CSPSR;                  /*!< Offset: 0x004 (R/W)  Current Parallel Port Size Regis
1000:Libraries/CMSIS/Include/core_cm3.h ****         uint32_t RESERVED0[2U];
1001:Libraries/CMSIS/Include/core_cm3.h ****   __IOM uint32_t ACPR;                   /*!< Offset: 0x010 (R/W)  Asynchronous Clock Prescaler Reg
1002:Libraries/CMSIS/Include/core_cm3.h ****         uint32_t RESERVED1[55U];
1003:Libraries/CMSIS/Include/core_cm3.h ****   __IOM uint32_t SPPR;                   /*!< Offset: 0x0F0 (R/W)  Selected Pin Protocol Register *
1004:Libraries/CMSIS/Include/core_cm3.h ****         uint32_t RESERVED2[131U];
1005:Libraries/CMSIS/Include/core_cm3.h ****   __IM  uint32_t FFSR;                   /*!< Offset: 0x300 (R/ )  Formatter and Flush Status Regis
1006:Libraries/CMSIS/Include/core_cm3.h ****   __IOM uint32_t FFCR;                   /*!< Offset: 0x304 (R/W)  Formatter and Flush Control Regi
1007:Libraries/CMSIS/Include/core_cm3.h ****   __IM  uint32_t FSCR;                   /*!< Offset: 0x308 (R/ )  Formatter Synchronization Counte
1008:Libraries/CMSIS/Include/core_cm3.h ****         uint32_t RESERVED3[759U];
1009:Libraries/CMSIS/Include/core_cm3.h ****   __IM  uint32_t TRIGGER;                /*!< Offset: 0xEE8 (R/ )  TRIGGER Register */
1010:Libraries/CMSIS/Include/core_cm3.h ****   __IM  uint32_t FIFO0;                  /*!< Offset: 0xEEC (R/ )  Integration ETM Data */
1011:Libraries/CMSIS/Include/core_cm3.h ****   __IM  uint32_t ITATBCTR2;              /*!< Offset: 0xEF0 (R/ )  ITATBCTR2 */
1012:Libraries/CMSIS/Include/core_cm3.h ****         uint32_t RESERVED4[1U];
1013:Libraries/CMSIS/Include/core_cm3.h ****   __IM  uint32_t ITATBCTR0;              /*!< Offset: 0xEF8 (R/ )  ITATBCTR0 */
1014:Libraries/CMSIS/Include/core_cm3.h ****   __IM  uint32_t FIFO1;                  /*!< Offset: 0xEFC (R/ )  Integration ITM Data */
1015:Libraries/CMSIS/Include/core_cm3.h ****   __IOM uint32_t ITCTRL;                 /*!< Offset: 0xF00 (R/W)  Integration Mode Control */
1016:Libraries/CMSIS/Include/core_cm3.h ****         uint32_t RESERVED5[39U];
1017:Libraries/CMSIS/Include/core_cm3.h ****   __IOM uint32_t CLAIMSET;               /*!< Offset: 0xFA0 (R/W)  Claim tag set */
1018:Libraries/CMSIS/Include/core_cm3.h ****   __IOM uint32_t CLAIMCLR;               /*!< Offset: 0xFA4 (R/W)  Claim tag clear */
1019:Libraries/CMSIS/Include/core_cm3.h ****         uint32_t RESERVED7[8U];
1020:Libraries/CMSIS/Include/core_cm3.h ****   __IM  uint32_t DEVID;                  /*!< Offset: 0xFC8 (R/ )  TPIU_DEVID */
1021:Libraries/CMSIS/Include/core_cm3.h ****   __IM  uint32_t DEVTYPE;                /*!< Offset: 0xFCC (R/ )  TPIU_DEVTYPE */
1022:Libraries/CMSIS/Include/core_cm3.h **** } TPI_Type;
1023:Libraries/CMSIS/Include/core_cm3.h **** 
1024:Libraries/CMSIS/Include/core_cm3.h **** /* TPI Asynchronous Clock Prescaler Register Definitions */
1025:Libraries/CMSIS/Include/core_cm3.h **** #define TPI_ACPR_PRESCALER_Pos              0U                                         /*!< TPI ACP
1026:Libraries/CMSIS/Include/core_cm3.h **** #define TPI_ACPR_PRESCALER_Msk             (0x1FFFUL /*<< TPI_ACPR_PRESCALER_Pos*/)    /*!< TPI ACP
1027:Libraries/CMSIS/Include/core_cm3.h **** 
1028:Libraries/CMSIS/Include/core_cm3.h **** /* TPI Selected Pin Protocol Register Definitions */
1029:Libraries/CMSIS/Include/core_cm3.h **** #define TPI_SPPR_TXMODE_Pos                 0U                                         /*!< TPI SPP
1030:Libraries/CMSIS/Include/core_cm3.h **** #define TPI_SPPR_TXMODE_Msk                (0x3UL /*<< TPI_SPPR_TXMODE_Pos*/)          /*!< TPI SPP
1031:Libraries/CMSIS/Include/core_cm3.h **** 
1032:Libraries/CMSIS/Include/core_cm3.h **** /* TPI Formatter and Flush Status Register Definitions */
1033:Libraries/CMSIS/Include/core_cm3.h **** #define TPI_FFSR_FtNonStop_Pos              3U                                         /*!< TPI FFS
1034:Libraries/CMSIS/Include/core_cm3.h **** #define TPI_FFSR_FtNonStop_Msk             (0x1UL << TPI_FFSR_FtNonStop_Pos)           /*!< TPI FFS
1035:Libraries/CMSIS/Include/core_cm3.h **** 
1036:Libraries/CMSIS/Include/core_cm3.h **** #define TPI_FFSR_TCPresent_Pos              2U                                         /*!< TPI FFS
1037:Libraries/CMSIS/Include/core_cm3.h **** #define TPI_FFSR_TCPresent_Msk             (0x1UL << TPI_FFSR_TCPresent_Pos)           /*!< TPI FFS
1038:Libraries/CMSIS/Include/core_cm3.h **** 
1039:Libraries/CMSIS/Include/core_cm3.h **** #define TPI_FFSR_FtStopped_Pos              1U                                         /*!< TPI FFS
1040:Libraries/CMSIS/Include/core_cm3.h **** #define TPI_FFSR_FtStopped_Msk             (0x1UL << TPI_FFSR_FtStopped_Pos)           /*!< TPI FFS
1041:Libraries/CMSIS/Include/core_cm3.h **** 
1042:Libraries/CMSIS/Include/core_cm3.h **** #define TPI_FFSR_FlInProg_Pos               0U                                         /*!< TPI FFS
1043:Libraries/CMSIS/Include/core_cm3.h **** #define TPI_FFSR_FlInProg_Msk              (0x1UL /*<< TPI_FFSR_FlInProg_Pos*/)        /*!< TPI FFS
1044:Libraries/CMSIS/Include/core_cm3.h **** 
1045:Libraries/CMSIS/Include/core_cm3.h **** /* TPI Formatter and Flush Control Register Definitions */
1046:Libraries/CMSIS/Include/core_cm3.h **** #define TPI_FFCR_TrigIn_Pos                 8U                                         /*!< TPI FFC
1047:Libraries/CMSIS/Include/core_cm3.h **** #define TPI_FFCR_TrigIn_Msk                (0x1UL << TPI_FFCR_TrigIn_Pos)              /*!< TPI FFC
1048:Libraries/CMSIS/Include/core_cm3.h **** 
1049:Libraries/CMSIS/Include/core_cm3.h **** #define TPI_FFCR_EnFCont_Pos                1U                                         /*!< TPI FFC
1050:Libraries/CMSIS/Include/core_cm3.h **** #define TPI_FFCR_EnFCont_Msk               (0x1UL << TPI_FFCR_EnFCont_Pos)             /*!< TPI FFC
1051:Libraries/CMSIS/Include/core_cm3.h **** 
1052:Libraries/CMSIS/Include/core_cm3.h **** /* TPI TRIGGER Register Definitions */
1053:Libraries/CMSIS/Include/core_cm3.h **** #define TPI_TRIGGER_TRIGGER_Pos             0U                                         /*!< TPI TRI
1054:Libraries/CMSIS/Include/core_cm3.h **** #define TPI_TRIGGER_TRIGGER_Msk            (0x1UL /*<< TPI_TRIGGER_TRIGGER_Pos*/)      /*!< TPI TRI
1055:Libraries/CMSIS/Include/core_cm3.h **** 
ARM GAS  C:\Users\ADMIN\AppData\Local\Temp\ccIuv89a.s 			page 48


1056:Libraries/CMSIS/Include/core_cm3.h **** /* TPI Integration ETM Data Register Definitions (FIFO0) */
1057:Libraries/CMSIS/Include/core_cm3.h **** #define TPI_FIFO0_ITM_ATVALID_Pos          29U                                         /*!< TPI FIF
1058:Libraries/CMSIS/Include/core_cm3.h **** #define TPI_FIFO0_ITM_ATVALID_Msk          (0x3UL << TPI_FIFO0_ITM_ATVALID_Pos)        /*!< TPI FIF
1059:Libraries/CMSIS/Include/core_cm3.h **** 
1060:Libraries/CMSIS/Include/core_cm3.h **** #define TPI_FIFO0_ITM_bytecount_Pos        27U                                         /*!< TPI FIF
1061:Libraries/CMSIS/Include/core_cm3.h **** #define TPI_FIFO0_ITM_bytecount_Msk        (0x3UL << TPI_FIFO0_ITM_bytecount_Pos)      /*!< TPI FIF
1062:Libraries/CMSIS/Include/core_cm3.h **** 
1063:Libraries/CMSIS/Include/core_cm3.h **** #define TPI_FIFO0_ETM_ATVALID_Pos          26U                                         /*!< TPI FIF
1064:Libraries/CMSIS/Include/core_cm3.h **** #define TPI_FIFO0_ETM_ATVALID_Msk          (0x3UL << TPI_FIFO0_ETM_ATVALID_Pos)        /*!< TPI FIF
1065:Libraries/CMSIS/Include/core_cm3.h **** 
1066:Libraries/CMSIS/Include/core_cm3.h **** #define TPI_FIFO0_ETM_bytecount_Pos        24U                                         /*!< TPI FIF
1067:Libraries/CMSIS/Include/core_cm3.h **** #define TPI_FIFO0_ETM_bytecount_Msk        (0x3UL << TPI_FIFO0_ETM_bytecount_Pos)      /*!< TPI FIF
1068:Libraries/CMSIS/Include/core_cm3.h **** 
1069:Libraries/CMSIS/Include/core_cm3.h **** #define TPI_FIFO0_ETM2_Pos                 16U                                         /*!< TPI FIF
1070:Libraries/CMSIS/Include/core_cm3.h **** #define TPI_FIFO0_ETM2_Msk                 (0xFFUL << TPI_FIFO0_ETM2_Pos)              /*!< TPI FIF
1071:Libraries/CMSIS/Include/core_cm3.h **** 
1072:Libraries/CMSIS/Include/core_cm3.h **** #define TPI_FIFO0_ETM1_Pos                  8U                                         /*!< TPI FIF
1073:Libraries/CMSIS/Include/core_cm3.h **** #define TPI_FIFO0_ETM1_Msk                 (0xFFUL << TPI_FIFO0_ETM1_Pos)              /*!< TPI FIF
1074:Libraries/CMSIS/Include/core_cm3.h **** 
1075:Libraries/CMSIS/Include/core_cm3.h **** #define TPI_FIFO0_ETM0_Pos                  0U                                         /*!< TPI FIF
1076:Libraries/CMSIS/Include/core_cm3.h **** #define TPI_FIFO0_ETM0_Msk                 (0xFFUL /*<< TPI_FIFO0_ETM0_Pos*/)          /*!< TPI FIF
1077:Libraries/CMSIS/Include/core_cm3.h **** 
1078:Libraries/CMSIS/Include/core_cm3.h **** /* TPI ITATBCTR2 Register Definitions */
1079:Libraries/CMSIS/Include/core_cm3.h **** #define TPI_ITATBCTR2_ATREADY2_Pos          0U                                         /*!< TPI ITA
1080:Libraries/CMSIS/Include/core_cm3.h **** #define TPI_ITATBCTR2_ATREADY2_Msk         (0x1UL /*<< TPI_ITATBCTR2_ATREADY2_Pos*/)   /*!< TPI ITA
1081:Libraries/CMSIS/Include/core_cm3.h **** 
1082:Libraries/CMSIS/Include/core_cm3.h **** #define TPI_ITATBCTR2_ATREADY1_Pos          0U                                         /*!< TPI ITA
1083:Libraries/CMSIS/Include/core_cm3.h **** #define TPI_ITATBCTR2_ATREADY1_Msk         (0x1UL /*<< TPI_ITATBCTR2_ATREADY1_Pos*/)   /*!< TPI ITA
1084:Libraries/CMSIS/Include/core_cm3.h **** 
1085:Libraries/CMSIS/Include/core_cm3.h **** /* TPI Integration ITM Data Register Definitions (FIFO1) */
1086:Libraries/CMSIS/Include/core_cm3.h **** #define TPI_FIFO1_ITM_ATVALID_Pos          29U                                         /*!< TPI FIF
1087:Libraries/CMSIS/Include/core_cm3.h **** #define TPI_FIFO1_ITM_ATVALID_Msk          (0x3UL << TPI_FIFO1_ITM_ATVALID_Pos)        /*!< TPI FIF
1088:Libraries/CMSIS/Include/core_cm3.h **** 
1089:Libraries/CMSIS/Include/core_cm3.h **** #define TPI_FIFO1_ITM_bytecount_Pos        27U                                         /*!< TPI FIF
1090:Libraries/CMSIS/Include/core_cm3.h **** #define TPI_FIFO1_ITM_bytecount_Msk        (0x3UL << TPI_FIFO1_ITM_bytecount_Pos)      /*!< TPI FIF
1091:Libraries/CMSIS/Include/core_cm3.h **** 
1092:Libraries/CMSIS/Include/core_cm3.h **** #define TPI_FIFO1_ETM_ATVALID_Pos          26U                                         /*!< TPI FIF
1093:Libraries/CMSIS/Include/core_cm3.h **** #define TPI_FIFO1_ETM_ATVALID_Msk          (0x3UL << TPI_FIFO1_ETM_ATVALID_Pos)        /*!< TPI FIF
1094:Libraries/CMSIS/Include/core_cm3.h **** 
1095:Libraries/CMSIS/Include/core_cm3.h **** #define TPI_FIFO1_ETM_bytecount_Pos        24U                                         /*!< TPI FIF
1096:Libraries/CMSIS/Include/core_cm3.h **** #define TPI_FIFO1_ETM_bytecount_Msk        (0x3UL << TPI_FIFO1_ETM_bytecount_Pos)      /*!< TPI FIF
1097:Libraries/CMSIS/Include/core_cm3.h **** 
1098:Libraries/CMSIS/Include/core_cm3.h **** #define TPI_FIFO1_ITM2_Pos                 16U                                         /*!< TPI FIF
1099:Libraries/CMSIS/Include/core_cm3.h **** #define TPI_FIFO1_ITM2_Msk                 (0xFFUL << TPI_FIFO1_ITM2_Pos)              /*!< TPI FIF
1100:Libraries/CMSIS/Include/core_cm3.h **** 
1101:Libraries/CMSIS/Include/core_cm3.h **** #define TPI_FIFO1_ITM1_Pos                  8U                                         /*!< TPI FIF
1102:Libraries/CMSIS/Include/core_cm3.h **** #define TPI_FIFO1_ITM1_Msk                 (0xFFUL << TPI_FIFO1_ITM1_Pos)              /*!< TPI FIF
1103:Libraries/CMSIS/Include/core_cm3.h **** 
1104:Libraries/CMSIS/Include/core_cm3.h **** #define TPI_FIFO1_ITM0_Pos                  0U                                         /*!< TPI FIF
1105:Libraries/CMSIS/Include/core_cm3.h **** #define TPI_FIFO1_ITM0_Msk                 (0xFFUL /*<< TPI_FIFO1_ITM0_Pos*/)          /*!< TPI FIF
1106:Libraries/CMSIS/Include/core_cm3.h **** 
1107:Libraries/CMSIS/Include/core_cm3.h **** /* TPI ITATBCTR0 Register Definitions */
1108:Libraries/CMSIS/Include/core_cm3.h **** #define TPI_ITATBCTR0_ATREADY2_Pos          0U                                         /*!< TPI ITA
1109:Libraries/CMSIS/Include/core_cm3.h **** #define TPI_ITATBCTR0_ATREADY2_Msk         (0x1UL /*<< TPI_ITATBCTR0_ATREADY2_Pos*/)   /*!< TPI ITA
1110:Libraries/CMSIS/Include/core_cm3.h **** 
1111:Libraries/CMSIS/Include/core_cm3.h **** #define TPI_ITATBCTR0_ATREADY1_Pos          0U                                         /*!< TPI ITA
1112:Libraries/CMSIS/Include/core_cm3.h **** #define TPI_ITATBCTR0_ATREADY1_Msk         (0x1UL /*<< TPI_ITATBCTR0_ATREADY1_Pos*/)   /*!< TPI ITA
ARM GAS  C:\Users\ADMIN\AppData\Local\Temp\ccIuv89a.s 			page 49


1113:Libraries/CMSIS/Include/core_cm3.h **** 
1114:Libraries/CMSIS/Include/core_cm3.h **** /* TPI Integration Mode Control Register Definitions */
1115:Libraries/CMSIS/Include/core_cm3.h **** #define TPI_ITCTRL_Mode_Pos                 0U                                         /*!< TPI ITC
1116:Libraries/CMSIS/Include/core_cm3.h **** #define TPI_ITCTRL_Mode_Msk                (0x3UL /*<< TPI_ITCTRL_Mode_Pos*/)          /*!< TPI ITC
1117:Libraries/CMSIS/Include/core_cm3.h **** 
1118:Libraries/CMSIS/Include/core_cm3.h **** /* TPI DEVID Register Definitions */
1119:Libraries/CMSIS/Include/core_cm3.h **** #define TPI_DEVID_NRZVALID_Pos             11U                                         /*!< TPI DEV
1120:Libraries/CMSIS/Include/core_cm3.h **** #define TPI_DEVID_NRZVALID_Msk             (0x1UL << TPI_DEVID_NRZVALID_Pos)           /*!< TPI DEV
1121:Libraries/CMSIS/Include/core_cm3.h **** 
1122:Libraries/CMSIS/Include/core_cm3.h **** #define TPI_DEVID_MANCVALID_Pos            10U                                         /*!< TPI DEV
1123:Libraries/CMSIS/Include/core_cm3.h **** #define TPI_DEVID_MANCVALID_Msk            (0x1UL << TPI_DEVID_MANCVALID_Pos)          /*!< TPI DEV
1124:Libraries/CMSIS/Include/core_cm3.h **** 
1125:Libraries/CMSIS/Include/core_cm3.h **** #define TPI_DEVID_PTINVALID_Pos             9U                                         /*!< TPI DEV
1126:Libraries/CMSIS/Include/core_cm3.h **** #define TPI_DEVID_PTINVALID_Msk            (0x1UL << TPI_DEVID_PTINVALID_Pos)          /*!< TPI DEV
1127:Libraries/CMSIS/Include/core_cm3.h **** 
1128:Libraries/CMSIS/Include/core_cm3.h **** #define TPI_DEVID_MinBufSz_Pos              6U                                         /*!< TPI DEV
1129:Libraries/CMSIS/Include/core_cm3.h **** #define TPI_DEVID_MinBufSz_Msk             (0x7UL << TPI_DEVID_MinBufSz_Pos)           /*!< TPI DEV
1130:Libraries/CMSIS/Include/core_cm3.h **** 
1131:Libraries/CMSIS/Include/core_cm3.h **** #define TPI_DEVID_AsynClkIn_Pos             5U                                         /*!< TPI DEV
1132:Libraries/CMSIS/Include/core_cm3.h **** #define TPI_DEVID_AsynClkIn_Msk            (0x1UL << TPI_DEVID_AsynClkIn_Pos)          /*!< TPI DEV
1133:Libraries/CMSIS/Include/core_cm3.h **** 
1134:Libraries/CMSIS/Include/core_cm3.h **** #define TPI_DEVID_NrTraceInput_Pos          0U                                         /*!< TPI DEV
1135:Libraries/CMSIS/Include/core_cm3.h **** #define TPI_DEVID_NrTraceInput_Msk         (0x1FUL /*<< TPI_DEVID_NrTraceInput_Pos*/)  /*!< TPI DEV
1136:Libraries/CMSIS/Include/core_cm3.h **** 
1137:Libraries/CMSIS/Include/core_cm3.h **** /* TPI DEVTYPE Register Definitions */
1138:Libraries/CMSIS/Include/core_cm3.h **** #define TPI_DEVTYPE_SubType_Pos             4U                                         /*!< TPI DEV
1139:Libraries/CMSIS/Include/core_cm3.h **** #define TPI_DEVTYPE_SubType_Msk            (0xFUL /*<< TPI_DEVTYPE_SubType_Pos*/)      /*!< TPI DEV
1140:Libraries/CMSIS/Include/core_cm3.h **** 
1141:Libraries/CMSIS/Include/core_cm3.h **** #define TPI_DEVTYPE_MajorType_Pos           0U                                         /*!< TPI DEV
1142:Libraries/CMSIS/Include/core_cm3.h **** #define TPI_DEVTYPE_MajorType_Msk          (0xFUL << TPI_DEVTYPE_MajorType_Pos)        /*!< TPI DEV
1143:Libraries/CMSIS/Include/core_cm3.h **** 
1144:Libraries/CMSIS/Include/core_cm3.h **** /*@}*/ /* end of group CMSIS_TPI */
1145:Libraries/CMSIS/Include/core_cm3.h **** 
1146:Libraries/CMSIS/Include/core_cm3.h **** 
1147:Libraries/CMSIS/Include/core_cm3.h **** #if defined (__MPU_PRESENT) && (__MPU_PRESENT == 1U)
1148:Libraries/CMSIS/Include/core_cm3.h **** /**
1149:Libraries/CMSIS/Include/core_cm3.h ****   \ingroup  CMSIS_core_register
1150:Libraries/CMSIS/Include/core_cm3.h ****   \defgroup CMSIS_MPU     Memory Protection Unit (MPU)
1151:Libraries/CMSIS/Include/core_cm3.h ****   \brief    Type definitions for the Memory Protection Unit (MPU)
1152:Libraries/CMSIS/Include/core_cm3.h ****   @{
1153:Libraries/CMSIS/Include/core_cm3.h ****  */
1154:Libraries/CMSIS/Include/core_cm3.h **** 
1155:Libraries/CMSIS/Include/core_cm3.h **** /**
1156:Libraries/CMSIS/Include/core_cm3.h ****   \brief  Structure type to access the Memory Protection Unit (MPU).
1157:Libraries/CMSIS/Include/core_cm3.h ****  */
1158:Libraries/CMSIS/Include/core_cm3.h **** typedef struct
1159:Libraries/CMSIS/Include/core_cm3.h **** {
1160:Libraries/CMSIS/Include/core_cm3.h ****   __IM  uint32_t TYPE;                   /*!< Offset: 0x000 (R/ )  MPU Type Register */
1161:Libraries/CMSIS/Include/core_cm3.h ****   __IOM uint32_t CTRL;                   /*!< Offset: 0x004 (R/W)  MPU Control Register */
1162:Libraries/CMSIS/Include/core_cm3.h ****   __IOM uint32_t RNR;                    /*!< Offset: 0x008 (R/W)  MPU Region RNRber Register */
1163:Libraries/CMSIS/Include/core_cm3.h ****   __IOM uint32_t RBAR;                   /*!< Offset: 0x00C (R/W)  MPU Region Base Address Register
1164:Libraries/CMSIS/Include/core_cm3.h ****   __IOM uint32_t RASR;                   /*!< Offset: 0x010 (R/W)  MPU Region Attribute and Size Re
1165:Libraries/CMSIS/Include/core_cm3.h ****   __IOM uint32_t RBAR_A1;                /*!< Offset: 0x014 (R/W)  MPU Alias 1 Region Base Address 
1166:Libraries/CMSIS/Include/core_cm3.h ****   __IOM uint32_t RASR_A1;                /*!< Offset: 0x018 (R/W)  MPU Alias 1 Region Attribute and
1167:Libraries/CMSIS/Include/core_cm3.h ****   __IOM uint32_t RBAR_A2;                /*!< Offset: 0x01C (R/W)  MPU Alias 2 Region Base Address 
1168:Libraries/CMSIS/Include/core_cm3.h ****   __IOM uint32_t RASR_A2;                /*!< Offset: 0x020 (R/W)  MPU Alias 2 Region Attribute and
1169:Libraries/CMSIS/Include/core_cm3.h ****   __IOM uint32_t RBAR_A3;                /*!< Offset: 0x024 (R/W)  MPU Alias 3 Region Base Address 
ARM GAS  C:\Users\ADMIN\AppData\Local\Temp\ccIuv89a.s 			page 50


1170:Libraries/CMSIS/Include/core_cm3.h ****   __IOM uint32_t RASR_A3;                /*!< Offset: 0x028 (R/W)  MPU Alias 3 Region Attribute and
1171:Libraries/CMSIS/Include/core_cm3.h **** } MPU_Type;
1172:Libraries/CMSIS/Include/core_cm3.h **** 
1173:Libraries/CMSIS/Include/core_cm3.h **** #define MPU_TYPE_RALIASES                  4U
1174:Libraries/CMSIS/Include/core_cm3.h **** 
1175:Libraries/CMSIS/Include/core_cm3.h **** /* MPU Type Register Definitions */
1176:Libraries/CMSIS/Include/core_cm3.h **** #define MPU_TYPE_IREGION_Pos               16U                                            /*!< MPU 
1177:Libraries/CMSIS/Include/core_cm3.h **** #define MPU_TYPE_IREGION_Msk               (0xFFUL << MPU_TYPE_IREGION_Pos)               /*!< MPU 
1178:Libraries/CMSIS/Include/core_cm3.h **** 
1179:Libraries/CMSIS/Include/core_cm3.h **** #define MPU_TYPE_DREGION_Pos                8U                                            /*!< MPU 
1180:Libraries/CMSIS/Include/core_cm3.h **** #define MPU_TYPE_DREGION_Msk               (0xFFUL << MPU_TYPE_DREGION_Pos)               /*!< MPU 
1181:Libraries/CMSIS/Include/core_cm3.h **** 
1182:Libraries/CMSIS/Include/core_cm3.h **** #define MPU_TYPE_SEPARATE_Pos               0U                                            /*!< MPU 
1183:Libraries/CMSIS/Include/core_cm3.h **** #define MPU_TYPE_SEPARATE_Msk              (1UL /*<< MPU_TYPE_SEPARATE_Pos*/)             /*!< MPU 
1184:Libraries/CMSIS/Include/core_cm3.h **** 
1185:Libraries/CMSIS/Include/core_cm3.h **** /* MPU Control Register Definitions */
1186:Libraries/CMSIS/Include/core_cm3.h **** #define MPU_CTRL_PRIVDEFENA_Pos             2U                                            /*!< MPU 
1187:Libraries/CMSIS/Include/core_cm3.h **** #define MPU_CTRL_PRIVDEFENA_Msk            (1UL << MPU_CTRL_PRIVDEFENA_Pos)               /*!< MPU 
1188:Libraries/CMSIS/Include/core_cm3.h **** 
1189:Libraries/CMSIS/Include/core_cm3.h **** #define MPU_CTRL_HFNMIENA_Pos               1U                                            /*!< MPU 
1190:Libraries/CMSIS/Include/core_cm3.h **** #define MPU_CTRL_HFNMIENA_Msk              (1UL << MPU_CTRL_HFNMIENA_Pos)                 /*!< MPU 
1191:Libraries/CMSIS/Include/core_cm3.h **** 
1192:Libraries/CMSIS/Include/core_cm3.h **** #define MPU_CTRL_ENABLE_Pos                 0U                                            /*!< MPU 
1193:Libraries/CMSIS/Include/core_cm3.h **** #define MPU_CTRL_ENABLE_Msk                (1UL /*<< MPU_CTRL_ENABLE_Pos*/)               /*!< MPU 
1194:Libraries/CMSIS/Include/core_cm3.h **** 
1195:Libraries/CMSIS/Include/core_cm3.h **** /* MPU Region Number Register Definitions */
1196:Libraries/CMSIS/Include/core_cm3.h **** #define MPU_RNR_REGION_Pos                  0U                                            /*!< MPU 
1197:Libraries/CMSIS/Include/core_cm3.h **** #define MPU_RNR_REGION_Msk                 (0xFFUL /*<< MPU_RNR_REGION_Pos*/)             /*!< MPU 
1198:Libraries/CMSIS/Include/core_cm3.h **** 
1199:Libraries/CMSIS/Include/core_cm3.h **** /* MPU Region Base Address Register Definitions */
1200:Libraries/CMSIS/Include/core_cm3.h **** #define MPU_RBAR_ADDR_Pos                   5U                                            /*!< MPU 
1201:Libraries/CMSIS/Include/core_cm3.h **** #define MPU_RBAR_ADDR_Msk                  (0x7FFFFFFUL << MPU_RBAR_ADDR_Pos)             /*!< MPU 
1202:Libraries/CMSIS/Include/core_cm3.h **** 
1203:Libraries/CMSIS/Include/core_cm3.h **** #define MPU_RBAR_VALID_Pos                  4U                                            /*!< MPU 
1204:Libraries/CMSIS/Include/core_cm3.h **** #define MPU_RBAR_VALID_Msk                 (1UL << MPU_RBAR_VALID_Pos)                    /*!< MPU 
1205:Libraries/CMSIS/Include/core_cm3.h **** 
1206:Libraries/CMSIS/Include/core_cm3.h **** #define MPU_RBAR_REGION_Pos                 0U                                            /*!< MPU 
1207:Libraries/CMSIS/Include/core_cm3.h **** #define MPU_RBAR_REGION_Msk                (0xFUL /*<< MPU_RBAR_REGION_Pos*/)             /*!< MPU 
1208:Libraries/CMSIS/Include/core_cm3.h **** 
1209:Libraries/CMSIS/Include/core_cm3.h **** /* MPU Region Attribute and Size Register Definitions */
1210:Libraries/CMSIS/Include/core_cm3.h **** #define MPU_RASR_ATTRS_Pos                 16U                                            /*!< MPU 
1211:Libraries/CMSIS/Include/core_cm3.h **** #define MPU_RASR_ATTRS_Msk                 (0xFFFFUL << MPU_RASR_ATTRS_Pos)               /*!< MPU 
1212:Libraries/CMSIS/Include/core_cm3.h **** 
1213:Libraries/CMSIS/Include/core_cm3.h **** #define MPU_RASR_XN_Pos                    28U                                            /*!< MPU 
1214:Libraries/CMSIS/Include/core_cm3.h **** #define MPU_RASR_XN_Msk                    (1UL << MPU_RASR_XN_Pos)                       /*!< MPU 
1215:Libraries/CMSIS/Include/core_cm3.h **** 
1216:Libraries/CMSIS/Include/core_cm3.h **** #define MPU_RASR_AP_Pos                    24U                                            /*!< MPU 
1217:Libraries/CMSIS/Include/core_cm3.h **** #define MPU_RASR_AP_Msk                    (0x7UL << MPU_RASR_AP_Pos)                     /*!< MPU 
1218:Libraries/CMSIS/Include/core_cm3.h **** 
1219:Libraries/CMSIS/Include/core_cm3.h **** #define MPU_RASR_TEX_Pos                   19U                                            /*!< MPU 
1220:Libraries/CMSIS/Include/core_cm3.h **** #define MPU_RASR_TEX_Msk                   (0x7UL << MPU_RASR_TEX_Pos)                    /*!< MPU 
1221:Libraries/CMSIS/Include/core_cm3.h **** 
1222:Libraries/CMSIS/Include/core_cm3.h **** #define MPU_RASR_S_Pos                     18U                                            /*!< MPU 
1223:Libraries/CMSIS/Include/core_cm3.h **** #define MPU_RASR_S_Msk                     (1UL << MPU_RASR_S_Pos)                        /*!< MPU 
1224:Libraries/CMSIS/Include/core_cm3.h **** 
1225:Libraries/CMSIS/Include/core_cm3.h **** #define MPU_RASR_C_Pos                     17U                                            /*!< MPU 
1226:Libraries/CMSIS/Include/core_cm3.h **** #define MPU_RASR_C_Msk                     (1UL << MPU_RASR_C_Pos)                        /*!< MPU 
ARM GAS  C:\Users\ADMIN\AppData\Local\Temp\ccIuv89a.s 			page 51


1227:Libraries/CMSIS/Include/core_cm3.h **** 
1228:Libraries/CMSIS/Include/core_cm3.h **** #define MPU_RASR_B_Pos                     16U                                            /*!< MPU 
1229:Libraries/CMSIS/Include/core_cm3.h **** #define MPU_RASR_B_Msk                     (1UL << MPU_RASR_B_Pos)                        /*!< MPU 
1230:Libraries/CMSIS/Include/core_cm3.h **** 
1231:Libraries/CMSIS/Include/core_cm3.h **** #define MPU_RASR_SRD_Pos                    8U                                            /*!< MPU 
1232:Libraries/CMSIS/Include/core_cm3.h **** #define MPU_RASR_SRD_Msk                   (0xFFUL << MPU_RASR_SRD_Pos)                   /*!< MPU 
1233:Libraries/CMSIS/Include/core_cm3.h **** 
1234:Libraries/CMSIS/Include/core_cm3.h **** #define MPU_RASR_SIZE_Pos                   1U                                            /*!< MPU 
1235:Libraries/CMSIS/Include/core_cm3.h **** #define MPU_RASR_SIZE_Msk                  (0x1FUL << MPU_RASR_SIZE_Pos)                  /*!< MPU 
1236:Libraries/CMSIS/Include/core_cm3.h **** 
1237:Libraries/CMSIS/Include/core_cm3.h **** #define MPU_RASR_ENABLE_Pos                 0U                                            /*!< MPU 
1238:Libraries/CMSIS/Include/core_cm3.h **** #define MPU_RASR_ENABLE_Msk                (1UL /*<< MPU_RASR_ENABLE_Pos*/)               /*!< MPU 
1239:Libraries/CMSIS/Include/core_cm3.h **** 
1240:Libraries/CMSIS/Include/core_cm3.h **** /*@} end of group CMSIS_MPU */
1241:Libraries/CMSIS/Include/core_cm3.h **** #endif
1242:Libraries/CMSIS/Include/core_cm3.h **** 
1243:Libraries/CMSIS/Include/core_cm3.h **** 
1244:Libraries/CMSIS/Include/core_cm3.h **** /**
1245:Libraries/CMSIS/Include/core_cm3.h ****   \ingroup  CMSIS_core_register
1246:Libraries/CMSIS/Include/core_cm3.h ****   \defgroup CMSIS_CoreDebug       Core Debug Registers (CoreDebug)
1247:Libraries/CMSIS/Include/core_cm3.h ****   \brief    Type definitions for the Core Debug Registers
1248:Libraries/CMSIS/Include/core_cm3.h ****   @{
1249:Libraries/CMSIS/Include/core_cm3.h ****  */
1250:Libraries/CMSIS/Include/core_cm3.h **** 
1251:Libraries/CMSIS/Include/core_cm3.h **** /**
1252:Libraries/CMSIS/Include/core_cm3.h ****   \brief  Structure type to access the Core Debug Register (CoreDebug).
1253:Libraries/CMSIS/Include/core_cm3.h ****  */
1254:Libraries/CMSIS/Include/core_cm3.h **** typedef struct
1255:Libraries/CMSIS/Include/core_cm3.h **** {
1256:Libraries/CMSIS/Include/core_cm3.h ****   __IOM uint32_t DHCSR;                  /*!< Offset: 0x000 (R/W)  Debug Halting Control and Status
1257:Libraries/CMSIS/Include/core_cm3.h ****   __OM  uint32_t DCRSR;                  /*!< Offset: 0x004 ( /W)  Debug Core Register Selector Reg
1258:Libraries/CMSIS/Include/core_cm3.h ****   __IOM uint32_t DCRDR;                  /*!< Offset: 0x008 (R/W)  Debug Core Register Data Registe
1259:Libraries/CMSIS/Include/core_cm3.h ****   __IOM uint32_t DEMCR;                  /*!< Offset: 0x00C (R/W)  Debug Exception and Monitor Cont
1260:Libraries/CMSIS/Include/core_cm3.h **** } CoreDebug_Type;
1261:Libraries/CMSIS/Include/core_cm3.h **** 
1262:Libraries/CMSIS/Include/core_cm3.h **** /* Debug Halting Control and Status Register Definitions */
1263:Libraries/CMSIS/Include/core_cm3.h **** #define CoreDebug_DHCSR_DBGKEY_Pos         16U                                            /*!< Core
1264:Libraries/CMSIS/Include/core_cm3.h **** #define CoreDebug_DHCSR_DBGKEY_Msk         (0xFFFFUL << CoreDebug_DHCSR_DBGKEY_Pos)       /*!< Core
1265:Libraries/CMSIS/Include/core_cm3.h **** 
1266:Libraries/CMSIS/Include/core_cm3.h **** #define CoreDebug_DHCSR_S_RESET_ST_Pos     25U                                            /*!< Core
1267:Libraries/CMSIS/Include/core_cm3.h **** #define CoreDebug_DHCSR_S_RESET_ST_Msk     (1UL << CoreDebug_DHCSR_S_RESET_ST_Pos)        /*!< Core
1268:Libraries/CMSIS/Include/core_cm3.h **** 
1269:Libraries/CMSIS/Include/core_cm3.h **** #define CoreDebug_DHCSR_S_RETIRE_ST_Pos    24U                                            /*!< Core
1270:Libraries/CMSIS/Include/core_cm3.h **** #define CoreDebug_DHCSR_S_RETIRE_ST_Msk    (1UL << CoreDebug_DHCSR_S_RETIRE_ST_Pos)       /*!< Core
1271:Libraries/CMSIS/Include/core_cm3.h **** 
1272:Libraries/CMSIS/Include/core_cm3.h **** #define CoreDebug_DHCSR_S_LOCKUP_Pos       19U                                            /*!< Core
1273:Libraries/CMSIS/Include/core_cm3.h **** #define CoreDebug_DHCSR_S_LOCKUP_Msk       (1UL << CoreDebug_DHCSR_S_LOCKUP_Pos)          /*!< Core
1274:Libraries/CMSIS/Include/core_cm3.h **** 
1275:Libraries/CMSIS/Include/core_cm3.h **** #define CoreDebug_DHCSR_S_SLEEP_Pos        18U                                            /*!< Core
1276:Libraries/CMSIS/Include/core_cm3.h **** #define CoreDebug_DHCSR_S_SLEEP_Msk        (1UL << CoreDebug_DHCSR_S_SLEEP_Pos)           /*!< Core
1277:Libraries/CMSIS/Include/core_cm3.h **** 
1278:Libraries/CMSIS/Include/core_cm3.h **** #define CoreDebug_DHCSR_S_HALT_Pos         17U                                            /*!< Core
1279:Libraries/CMSIS/Include/core_cm3.h **** #define CoreDebug_DHCSR_S_HALT_Msk         (1UL << CoreDebug_DHCSR_S_HALT_Pos)            /*!< Core
1280:Libraries/CMSIS/Include/core_cm3.h **** 
1281:Libraries/CMSIS/Include/core_cm3.h **** #define CoreDebug_DHCSR_S_REGRDY_Pos       16U                                            /*!< Core
1282:Libraries/CMSIS/Include/core_cm3.h **** #define CoreDebug_DHCSR_S_REGRDY_Msk       (1UL << CoreDebug_DHCSR_S_REGRDY_Pos)          /*!< Core
1283:Libraries/CMSIS/Include/core_cm3.h **** 
ARM GAS  C:\Users\ADMIN\AppData\Local\Temp\ccIuv89a.s 			page 52


1284:Libraries/CMSIS/Include/core_cm3.h **** #define CoreDebug_DHCSR_C_SNAPSTALL_Pos     5U                                            /*!< Core
1285:Libraries/CMSIS/Include/core_cm3.h **** #define CoreDebug_DHCSR_C_SNAPSTALL_Msk    (1UL << CoreDebug_DHCSR_C_SNAPSTALL_Pos)       /*!< Core
1286:Libraries/CMSIS/Include/core_cm3.h **** 
1287:Libraries/CMSIS/Include/core_cm3.h **** #define CoreDebug_DHCSR_C_MASKINTS_Pos      3U                                            /*!< Core
1288:Libraries/CMSIS/Include/core_cm3.h **** #define CoreDebug_DHCSR_C_MASKINTS_Msk     (1UL << CoreDebug_DHCSR_C_MASKINTS_Pos)        /*!< Core
1289:Libraries/CMSIS/Include/core_cm3.h **** 
1290:Libraries/CMSIS/Include/core_cm3.h **** #define CoreDebug_DHCSR_C_STEP_Pos          2U                                            /*!< Core
1291:Libraries/CMSIS/Include/core_cm3.h **** #define CoreDebug_DHCSR_C_STEP_Msk         (1UL << CoreDebug_DHCSR_C_STEP_Pos)            /*!< Core
1292:Libraries/CMSIS/Include/core_cm3.h **** 
1293:Libraries/CMSIS/Include/core_cm3.h **** #define CoreDebug_DHCSR_C_HALT_Pos          1U                                            /*!< Core
1294:Libraries/CMSIS/Include/core_cm3.h **** #define CoreDebug_DHCSR_C_HALT_Msk         (1UL << CoreDebug_DHCSR_C_HALT_Pos)            /*!< Core
1295:Libraries/CMSIS/Include/core_cm3.h **** 
1296:Libraries/CMSIS/Include/core_cm3.h **** #define CoreDebug_DHCSR_C_DEBUGEN_Pos       0U                                            /*!< Core
1297:Libraries/CMSIS/Include/core_cm3.h **** #define CoreDebug_DHCSR_C_DEBUGEN_Msk      (1UL /*<< CoreDebug_DHCSR_C_DEBUGEN_Pos*/)     /*!< Core
1298:Libraries/CMSIS/Include/core_cm3.h **** 
1299:Libraries/CMSIS/Include/core_cm3.h **** /* Debug Core Register Selector Register Definitions */
1300:Libraries/CMSIS/Include/core_cm3.h **** #define CoreDebug_DCRSR_REGWnR_Pos         16U                                            /*!< Core
1301:Libraries/CMSIS/Include/core_cm3.h **** #define CoreDebug_DCRSR_REGWnR_Msk         (1UL << CoreDebug_DCRSR_REGWnR_Pos)            /*!< Core
1302:Libraries/CMSIS/Include/core_cm3.h **** 
1303:Libraries/CMSIS/Include/core_cm3.h **** #define CoreDebug_DCRSR_REGSEL_Pos          0U                                            /*!< Core
1304:Libraries/CMSIS/Include/core_cm3.h **** #define CoreDebug_DCRSR_REGSEL_Msk         (0x1FUL /*<< CoreDebug_DCRSR_REGSEL_Pos*/)     /*!< Core
1305:Libraries/CMSIS/Include/core_cm3.h **** 
1306:Libraries/CMSIS/Include/core_cm3.h **** /* Debug Exception and Monitor Control Register Definitions */
1307:Libraries/CMSIS/Include/core_cm3.h **** #define CoreDebug_DEMCR_TRCENA_Pos         24U                                            /*!< Core
1308:Libraries/CMSIS/Include/core_cm3.h **** #define CoreDebug_DEMCR_TRCENA_Msk         (1UL << CoreDebug_DEMCR_TRCENA_Pos)            /*!< Core
1309:Libraries/CMSIS/Include/core_cm3.h **** 
1310:Libraries/CMSIS/Include/core_cm3.h **** #define CoreDebug_DEMCR_MON_REQ_Pos        19U                                            /*!< Core
1311:Libraries/CMSIS/Include/core_cm3.h **** #define CoreDebug_DEMCR_MON_REQ_Msk        (1UL << CoreDebug_DEMCR_MON_REQ_Pos)           /*!< Core
1312:Libraries/CMSIS/Include/core_cm3.h **** 
1313:Libraries/CMSIS/Include/core_cm3.h **** #define CoreDebug_DEMCR_MON_STEP_Pos       18U                                            /*!< Core
1314:Libraries/CMSIS/Include/core_cm3.h **** #define CoreDebug_DEMCR_MON_STEP_Msk       (1UL << CoreDebug_DEMCR_MON_STEP_Pos)          /*!< Core
1315:Libraries/CMSIS/Include/core_cm3.h **** 
1316:Libraries/CMSIS/Include/core_cm3.h **** #define CoreDebug_DEMCR_MON_PEND_Pos       17U                                            /*!< Core
1317:Libraries/CMSIS/Include/core_cm3.h **** #define CoreDebug_DEMCR_MON_PEND_Msk       (1UL << CoreDebug_DEMCR_MON_PEND_Pos)          /*!< Core
1318:Libraries/CMSIS/Include/core_cm3.h **** 
1319:Libraries/CMSIS/Include/core_cm3.h **** #define CoreDebug_DEMCR_MON_EN_Pos         16U                                            /*!< Core
1320:Libraries/CMSIS/Include/core_cm3.h **** #define CoreDebug_DEMCR_MON_EN_Msk         (1UL << CoreDebug_DEMCR_MON_EN_Pos)            /*!< Core
1321:Libraries/CMSIS/Include/core_cm3.h **** 
1322:Libraries/CMSIS/Include/core_cm3.h **** #define CoreDebug_DEMCR_VC_HARDERR_Pos     10U                                            /*!< Core
1323:Libraries/CMSIS/Include/core_cm3.h **** #define CoreDebug_DEMCR_VC_HARDERR_Msk     (1UL << CoreDebug_DEMCR_VC_HARDERR_Pos)        /*!< Core
1324:Libraries/CMSIS/Include/core_cm3.h **** 
1325:Libraries/CMSIS/Include/core_cm3.h **** #define CoreDebug_DEMCR_VC_INTERR_Pos       9U                                            /*!< Core
1326:Libraries/CMSIS/Include/core_cm3.h **** #define CoreDebug_DEMCR_VC_INTERR_Msk      (1UL << CoreDebug_DEMCR_VC_INTERR_Pos)         /*!< Core
1327:Libraries/CMSIS/Include/core_cm3.h **** 
1328:Libraries/CMSIS/Include/core_cm3.h **** #define CoreDebug_DEMCR_VC_BUSERR_Pos       8U                                            /*!< Core
1329:Libraries/CMSIS/Include/core_cm3.h **** #define CoreDebug_DEMCR_VC_BUSERR_Msk      (1UL << CoreDebug_DEMCR_VC_BUSERR_Pos)         /*!< Core
1330:Libraries/CMSIS/Include/core_cm3.h **** 
1331:Libraries/CMSIS/Include/core_cm3.h **** #define CoreDebug_DEMCR_VC_STATERR_Pos      7U                                            /*!< Core
1332:Libraries/CMSIS/Include/core_cm3.h **** #define CoreDebug_DEMCR_VC_STATERR_Msk     (1UL << CoreDebug_DEMCR_VC_STATERR_Pos)        /*!< Core
1333:Libraries/CMSIS/Include/core_cm3.h **** 
1334:Libraries/CMSIS/Include/core_cm3.h **** #define CoreDebug_DEMCR_VC_CHKERR_Pos       6U                                            /*!< Core
1335:Libraries/CMSIS/Include/core_cm3.h **** #define CoreDebug_DEMCR_VC_CHKERR_Msk      (1UL << CoreDebug_DEMCR_VC_CHKERR_Pos)         /*!< Core
1336:Libraries/CMSIS/Include/core_cm3.h **** 
1337:Libraries/CMSIS/Include/core_cm3.h **** #define CoreDebug_DEMCR_VC_NOCPERR_Pos      5U                                            /*!< Core
1338:Libraries/CMSIS/Include/core_cm3.h **** #define CoreDebug_DEMCR_VC_NOCPERR_Msk     (1UL << CoreDebug_DEMCR_VC_NOCPERR_Pos)        /*!< Core
1339:Libraries/CMSIS/Include/core_cm3.h **** 
1340:Libraries/CMSIS/Include/core_cm3.h **** #define CoreDebug_DEMCR_VC_MMERR_Pos        4U                                            /*!< Core
ARM GAS  C:\Users\ADMIN\AppData\Local\Temp\ccIuv89a.s 			page 53


1341:Libraries/CMSIS/Include/core_cm3.h **** #define CoreDebug_DEMCR_VC_MMERR_Msk       (1UL << CoreDebug_DEMCR_VC_MMERR_Pos)          /*!< Core
1342:Libraries/CMSIS/Include/core_cm3.h **** 
1343:Libraries/CMSIS/Include/core_cm3.h **** #define CoreDebug_DEMCR_VC_CORERESET_Pos    0U                                            /*!< Core
1344:Libraries/CMSIS/Include/core_cm3.h **** #define CoreDebug_DEMCR_VC_CORERESET_Msk   (1UL /*<< CoreDebug_DEMCR_VC_CORERESET_Pos*/)  /*!< Core
1345:Libraries/CMSIS/Include/core_cm3.h **** 
1346:Libraries/CMSIS/Include/core_cm3.h **** /*@} end of group CMSIS_CoreDebug */
1347:Libraries/CMSIS/Include/core_cm3.h **** 
1348:Libraries/CMSIS/Include/core_cm3.h **** 
1349:Libraries/CMSIS/Include/core_cm3.h **** /**
1350:Libraries/CMSIS/Include/core_cm3.h ****   \ingroup    CMSIS_core_register
1351:Libraries/CMSIS/Include/core_cm3.h ****   \defgroup   CMSIS_core_bitfield     Core register bit field macros
1352:Libraries/CMSIS/Include/core_cm3.h ****   \brief      Macros for use with bit field definitions (xxx_Pos, xxx_Msk).
1353:Libraries/CMSIS/Include/core_cm3.h ****   @{
1354:Libraries/CMSIS/Include/core_cm3.h ****  */
1355:Libraries/CMSIS/Include/core_cm3.h **** 
1356:Libraries/CMSIS/Include/core_cm3.h **** /**
1357:Libraries/CMSIS/Include/core_cm3.h ****   \brief   Mask and shift a bit field value for use in a register bit range.
1358:Libraries/CMSIS/Include/core_cm3.h ****   \param[in] field  Name of the register bit field.
1359:Libraries/CMSIS/Include/core_cm3.h ****   \param[in] value  Value of the bit field. This parameter is interpreted as an uint32_t type.
1360:Libraries/CMSIS/Include/core_cm3.h ****   \return           Masked and shifted value.
1361:Libraries/CMSIS/Include/core_cm3.h **** */
1362:Libraries/CMSIS/Include/core_cm3.h **** #define _VAL2FLD(field, value)    (((uint32_t)(value) << field ## _Pos) & field ## _Msk)
1363:Libraries/CMSIS/Include/core_cm3.h **** 
1364:Libraries/CMSIS/Include/core_cm3.h **** /**
1365:Libraries/CMSIS/Include/core_cm3.h ****   \brief     Mask and shift a register value to extract a bit filed value.
1366:Libraries/CMSIS/Include/core_cm3.h ****   \param[in] field  Name of the register bit field.
1367:Libraries/CMSIS/Include/core_cm3.h ****   \param[in] value  Value of register. This parameter is interpreted as an uint32_t type.
1368:Libraries/CMSIS/Include/core_cm3.h ****   \return           Masked and shifted bit field value.
1369:Libraries/CMSIS/Include/core_cm3.h **** */
1370:Libraries/CMSIS/Include/core_cm3.h **** #define _FLD2VAL(field, value)    (((uint32_t)(value) & field ## _Msk) >> field ## _Pos)
1371:Libraries/CMSIS/Include/core_cm3.h **** 
1372:Libraries/CMSIS/Include/core_cm3.h **** /*@} end of group CMSIS_core_bitfield */
1373:Libraries/CMSIS/Include/core_cm3.h **** 
1374:Libraries/CMSIS/Include/core_cm3.h **** 
1375:Libraries/CMSIS/Include/core_cm3.h **** /**
1376:Libraries/CMSIS/Include/core_cm3.h ****   \ingroup    CMSIS_core_register
1377:Libraries/CMSIS/Include/core_cm3.h ****   \defgroup   CMSIS_core_base     Core Definitions
1378:Libraries/CMSIS/Include/core_cm3.h ****   \brief      Definitions for base addresses, unions, and structures.
1379:Libraries/CMSIS/Include/core_cm3.h ****   @{
1380:Libraries/CMSIS/Include/core_cm3.h ****  */
1381:Libraries/CMSIS/Include/core_cm3.h **** 
1382:Libraries/CMSIS/Include/core_cm3.h **** /* Memory mapping of Core Hardware */
1383:Libraries/CMSIS/Include/core_cm3.h **** #define SCS_BASE            (0xE000E000UL)                            /*!< System Control Space Bas
1384:Libraries/CMSIS/Include/core_cm3.h **** #define ITM_BASE            (0xE0000000UL)                            /*!< ITM Base Address */
1385:Libraries/CMSIS/Include/core_cm3.h **** #define DWT_BASE            (0xE0001000UL)                            /*!< DWT Base Address */
1386:Libraries/CMSIS/Include/core_cm3.h **** #define TPI_BASE            (0xE0040000UL)                            /*!< TPI Base Address */
1387:Libraries/CMSIS/Include/core_cm3.h **** #define CoreDebug_BASE      (0xE000EDF0UL)                            /*!< Core Debug Base Address 
1388:Libraries/CMSIS/Include/core_cm3.h **** #define SysTick_BASE        (SCS_BASE +  0x0010UL)                    /*!< SysTick Base Address */
1389:Libraries/CMSIS/Include/core_cm3.h **** #define NVIC_BASE           (SCS_BASE +  0x0100UL)                    /*!< NVIC Base Address */
1390:Libraries/CMSIS/Include/core_cm3.h **** #define SCB_BASE            (SCS_BASE +  0x0D00UL)                    /*!< System Control Block Bas
1391:Libraries/CMSIS/Include/core_cm3.h **** 
1392:Libraries/CMSIS/Include/core_cm3.h **** #define SCnSCB              ((SCnSCB_Type    *)     SCS_BASE      )   /*!< System control Register 
1393:Libraries/CMSIS/Include/core_cm3.h **** #define SCB                 ((SCB_Type       *)     SCB_BASE      )   /*!< SCB configuration struct
1394:Libraries/CMSIS/Include/core_cm3.h **** #define SysTick             ((SysTick_Type   *)     SysTick_BASE  )   /*!< SysTick configuration st
1395:Libraries/CMSIS/Include/core_cm3.h **** #define NVIC                ((NVIC_Type      *)     NVIC_BASE     )   /*!< NVIC configuration struc
1396:Libraries/CMSIS/Include/core_cm3.h **** #define ITM                 ((ITM_Type       *)     ITM_BASE      )   /*!< ITM configuration struct
1397:Libraries/CMSIS/Include/core_cm3.h **** #define DWT                 ((DWT_Type       *)     DWT_BASE      )   /*!< DWT configuration struct
ARM GAS  C:\Users\ADMIN\AppData\Local\Temp\ccIuv89a.s 			page 54


1398:Libraries/CMSIS/Include/core_cm3.h **** #define TPI                 ((TPI_Type       *)     TPI_BASE      )   /*!< TPI configuration struct
1399:Libraries/CMSIS/Include/core_cm3.h **** #define CoreDebug           ((CoreDebug_Type *)     CoreDebug_BASE)   /*!< Core Debug configuration
1400:Libraries/CMSIS/Include/core_cm3.h **** 
1401:Libraries/CMSIS/Include/core_cm3.h **** #if defined (__MPU_PRESENT) && (__MPU_PRESENT == 1U)
1402:Libraries/CMSIS/Include/core_cm3.h ****   #define MPU_BASE          (SCS_BASE +  0x0D90UL)                    /*!< Memory Protection Unit *
1403:Libraries/CMSIS/Include/core_cm3.h ****   #define MPU               ((MPU_Type       *)     MPU_BASE      )   /*!< Memory Protection Unit *
1404:Libraries/CMSIS/Include/core_cm3.h **** #endif
1405:Libraries/CMSIS/Include/core_cm3.h **** 
1406:Libraries/CMSIS/Include/core_cm3.h **** /*@} */
1407:Libraries/CMSIS/Include/core_cm3.h **** 
1408:Libraries/CMSIS/Include/core_cm3.h **** 
1409:Libraries/CMSIS/Include/core_cm3.h **** 
1410:Libraries/CMSIS/Include/core_cm3.h **** /*******************************************************************************
1411:Libraries/CMSIS/Include/core_cm3.h ****  *                Hardware Abstraction Layer
1412:Libraries/CMSIS/Include/core_cm3.h ****   Core Function Interface contains:
1413:Libraries/CMSIS/Include/core_cm3.h ****   - Core NVIC Functions
1414:Libraries/CMSIS/Include/core_cm3.h ****   - Core SysTick Functions
1415:Libraries/CMSIS/Include/core_cm3.h ****   - Core Debug Functions
1416:Libraries/CMSIS/Include/core_cm3.h ****   - Core Register Access Functions
1417:Libraries/CMSIS/Include/core_cm3.h ****  ******************************************************************************/
1418:Libraries/CMSIS/Include/core_cm3.h **** /**
1419:Libraries/CMSIS/Include/core_cm3.h ****   \defgroup CMSIS_Core_FunctionInterface Functions and Instructions Reference
1420:Libraries/CMSIS/Include/core_cm3.h **** */
1421:Libraries/CMSIS/Include/core_cm3.h **** 
1422:Libraries/CMSIS/Include/core_cm3.h **** 
1423:Libraries/CMSIS/Include/core_cm3.h **** 
1424:Libraries/CMSIS/Include/core_cm3.h **** /* ##########################   NVIC functions  #################################### */
1425:Libraries/CMSIS/Include/core_cm3.h **** /**
1426:Libraries/CMSIS/Include/core_cm3.h ****   \ingroup  CMSIS_Core_FunctionInterface
1427:Libraries/CMSIS/Include/core_cm3.h ****   \defgroup CMSIS_Core_NVICFunctions NVIC Functions
1428:Libraries/CMSIS/Include/core_cm3.h ****   \brief    Functions that manage interrupts and exceptions via the NVIC.
1429:Libraries/CMSIS/Include/core_cm3.h ****   @{
1430:Libraries/CMSIS/Include/core_cm3.h ****  */
1431:Libraries/CMSIS/Include/core_cm3.h **** 
1432:Libraries/CMSIS/Include/core_cm3.h **** #ifdef CMSIS_NVIC_VIRTUAL
1433:Libraries/CMSIS/Include/core_cm3.h ****   #ifndef CMSIS_NVIC_VIRTUAL_HEADER_FILE
1434:Libraries/CMSIS/Include/core_cm3.h ****     #define CMSIS_NVIC_VIRTUAL_HEADER_FILE "cmsis_nvic_virtual.h"
1435:Libraries/CMSIS/Include/core_cm3.h ****   #endif
1436:Libraries/CMSIS/Include/core_cm3.h ****   #include CMSIS_NVIC_VIRTUAL_HEADER_FILE
1437:Libraries/CMSIS/Include/core_cm3.h **** #else
1438:Libraries/CMSIS/Include/core_cm3.h ****   #define NVIC_SetPriorityGrouping    __NVIC_SetPriorityGrouping
1439:Libraries/CMSIS/Include/core_cm3.h ****   #define NVIC_GetPriorityGrouping    __NVIC_GetPriorityGrouping
1440:Libraries/CMSIS/Include/core_cm3.h ****   #define NVIC_EnableIRQ              __NVIC_EnableIRQ
1441:Libraries/CMSIS/Include/core_cm3.h ****   #define NVIC_GetEnableIRQ           __NVIC_GetEnableIRQ
1442:Libraries/CMSIS/Include/core_cm3.h ****   #define NVIC_DisableIRQ             __NVIC_DisableIRQ
1443:Libraries/CMSIS/Include/core_cm3.h ****   #define NVIC_GetPendingIRQ          __NVIC_GetPendingIRQ
1444:Libraries/CMSIS/Include/core_cm3.h ****   #define NVIC_SetPendingIRQ          __NVIC_SetPendingIRQ
1445:Libraries/CMSIS/Include/core_cm3.h ****   #define NVIC_ClearPendingIRQ        __NVIC_ClearPendingIRQ
1446:Libraries/CMSIS/Include/core_cm3.h ****   #define NVIC_GetActive              __NVIC_GetActive
1447:Libraries/CMSIS/Include/core_cm3.h ****   #define NVIC_SetPriority            __NVIC_SetPriority
1448:Libraries/CMSIS/Include/core_cm3.h ****   #define NVIC_GetPriority            __NVIC_GetPriority
1449:Libraries/CMSIS/Include/core_cm3.h ****   #define NVIC_SystemReset            __NVIC_SystemReset
1450:Libraries/CMSIS/Include/core_cm3.h **** #endif /* CMSIS_NVIC_VIRTUAL */
1451:Libraries/CMSIS/Include/core_cm3.h **** 
1452:Libraries/CMSIS/Include/core_cm3.h **** #ifdef CMSIS_VECTAB_VIRTUAL
1453:Libraries/CMSIS/Include/core_cm3.h ****   #ifndef CMSIS_VECTAB_VIRTUAL_HEADER_FILE
1454:Libraries/CMSIS/Include/core_cm3.h ****    #define CMSIS_VECTAB_VIRTUAL_HEADER_FILE "cmsis_vectab_virtual.h"
ARM GAS  C:\Users\ADMIN\AppData\Local\Temp\ccIuv89a.s 			page 55


1455:Libraries/CMSIS/Include/core_cm3.h ****   #endif
1456:Libraries/CMSIS/Include/core_cm3.h ****   #include CMSIS_VECTAB_VIRTUAL_HEADER_FILE
1457:Libraries/CMSIS/Include/core_cm3.h **** #else
1458:Libraries/CMSIS/Include/core_cm3.h ****   #define NVIC_SetVector              __NVIC_SetVector
1459:Libraries/CMSIS/Include/core_cm3.h ****   #define NVIC_GetVector              __NVIC_GetVector
1460:Libraries/CMSIS/Include/core_cm3.h **** #endif  /* (CMSIS_VECTAB_VIRTUAL) */
1461:Libraries/CMSIS/Include/core_cm3.h **** 
1462:Libraries/CMSIS/Include/core_cm3.h **** #define NVIC_USER_IRQ_OFFSET          16
1463:Libraries/CMSIS/Include/core_cm3.h **** 
1464:Libraries/CMSIS/Include/core_cm3.h **** 
1465:Libraries/CMSIS/Include/core_cm3.h **** /* The following EXC_RETURN values are saved the LR on exception entry */
1466:Libraries/CMSIS/Include/core_cm3.h **** #define EXC_RETURN_HANDLER         (0xFFFFFFF1UL)     /* return to Handler mode, uses MSP after ret
1467:Libraries/CMSIS/Include/core_cm3.h **** #define EXC_RETURN_THREAD_MSP      (0xFFFFFFF9UL)     /* return to Thread mode, uses MSP after retu
1468:Libraries/CMSIS/Include/core_cm3.h **** #define EXC_RETURN_THREAD_PSP      (0xFFFFFFFDUL)     /* return to Thread mode, uses PSP after retu
1469:Libraries/CMSIS/Include/core_cm3.h **** 
1470:Libraries/CMSIS/Include/core_cm3.h **** 
1471:Libraries/CMSIS/Include/core_cm3.h **** /**
1472:Libraries/CMSIS/Include/core_cm3.h ****   \brief   Set Priority Grouping
1473:Libraries/CMSIS/Include/core_cm3.h ****   \details Sets the priority grouping field using the required unlock sequence.
1474:Libraries/CMSIS/Include/core_cm3.h ****            The parameter PriorityGroup is assigned to the field SCB->AIRCR [10:8] PRIGROUP field.
1475:Libraries/CMSIS/Include/core_cm3.h ****            Only values from 0..7 are used.
1476:Libraries/CMSIS/Include/core_cm3.h ****            In case of a conflict between priority grouping and available
1477:Libraries/CMSIS/Include/core_cm3.h ****            priority bits (__NVIC_PRIO_BITS), the smallest possible priority group is set.
1478:Libraries/CMSIS/Include/core_cm3.h ****   \param [in]      PriorityGroup  Priority grouping field.
1479:Libraries/CMSIS/Include/core_cm3.h ****  */
1480:Libraries/CMSIS/Include/core_cm3.h **** __STATIC_INLINE void __NVIC_SetPriorityGrouping(uint32_t PriorityGroup)
1481:Libraries/CMSIS/Include/core_cm3.h **** {
1482:Libraries/CMSIS/Include/core_cm3.h ****   uint32_t reg_value;
1483:Libraries/CMSIS/Include/core_cm3.h ****   uint32_t PriorityGroupTmp = (PriorityGroup & (uint32_t)0x07UL);             /* only values 0..7 a
1484:Libraries/CMSIS/Include/core_cm3.h **** 
1485:Libraries/CMSIS/Include/core_cm3.h ****   reg_value  =  SCB->AIRCR;                                                   /* read old register 
1486:Libraries/CMSIS/Include/core_cm3.h ****   reg_value &= ~((uint32_t)(SCB_AIRCR_VECTKEY_Msk | SCB_AIRCR_PRIGROUP_Msk)); /* clear bits to chan
1487:Libraries/CMSIS/Include/core_cm3.h ****   reg_value  =  (reg_value                                   |
1488:Libraries/CMSIS/Include/core_cm3.h ****                 ((uint32_t)0x5FAUL << SCB_AIRCR_VECTKEY_Pos) |
1489:Libraries/CMSIS/Include/core_cm3.h ****                 (PriorityGroupTmp << SCB_AIRCR_PRIGROUP_Pos) );               /* Insert write key a
1490:Libraries/CMSIS/Include/core_cm3.h ****   SCB->AIRCR =  reg_value;
1491:Libraries/CMSIS/Include/core_cm3.h **** }
1492:Libraries/CMSIS/Include/core_cm3.h **** 
1493:Libraries/CMSIS/Include/core_cm3.h **** 
1494:Libraries/CMSIS/Include/core_cm3.h **** /**
1495:Libraries/CMSIS/Include/core_cm3.h ****   \brief   Get Priority Grouping
1496:Libraries/CMSIS/Include/core_cm3.h ****   \details Reads the priority grouping field from the NVIC Interrupt Controller.
1497:Libraries/CMSIS/Include/core_cm3.h ****   \return                Priority grouping field (SCB->AIRCR [10:8] PRIGROUP field).
1498:Libraries/CMSIS/Include/core_cm3.h ****  */
1499:Libraries/CMSIS/Include/core_cm3.h **** __STATIC_INLINE uint32_t __NVIC_GetPriorityGrouping(void)
1500:Libraries/CMSIS/Include/core_cm3.h **** {
1501:Libraries/CMSIS/Include/core_cm3.h ****   return ((uint32_t)((SCB->AIRCR & SCB_AIRCR_PRIGROUP_Msk) >> SCB_AIRCR_PRIGROUP_Pos));
1502:Libraries/CMSIS/Include/core_cm3.h **** }
1503:Libraries/CMSIS/Include/core_cm3.h **** 
1504:Libraries/CMSIS/Include/core_cm3.h **** 
1505:Libraries/CMSIS/Include/core_cm3.h **** /**
1506:Libraries/CMSIS/Include/core_cm3.h ****   \brief   Enable Interrupt
1507:Libraries/CMSIS/Include/core_cm3.h ****   \details Enables a device specific interrupt in the NVIC interrupt controller.
1508:Libraries/CMSIS/Include/core_cm3.h ****   \param [in]      IRQn  Device specific interrupt number.
1509:Libraries/CMSIS/Include/core_cm3.h ****   \note    IRQn must not be negative.
1510:Libraries/CMSIS/Include/core_cm3.h ****  */
1511:Libraries/CMSIS/Include/core_cm3.h **** __STATIC_INLINE void __NVIC_EnableIRQ(IRQn_Type IRQn)
ARM GAS  C:\Users\ADMIN\AppData\Local\Temp\ccIuv89a.s 			page 56


1512:Libraries/CMSIS/Include/core_cm3.h **** {
1513:Libraries/CMSIS/Include/core_cm3.h ****   if ((int32_t)(IRQn) >= 0)
1514:Libraries/CMSIS/Include/core_cm3.h ****   {
1515:Libraries/CMSIS/Include/core_cm3.h ****     NVIC->ISER[(((uint32_t)IRQn) >> 5UL)] = (uint32_t)(1UL << (((uint32_t)IRQn) & 0x1FUL));
1516:Libraries/CMSIS/Include/core_cm3.h ****   }
1517:Libraries/CMSIS/Include/core_cm3.h **** }
1518:Libraries/CMSIS/Include/core_cm3.h **** 
1519:Libraries/CMSIS/Include/core_cm3.h **** 
1520:Libraries/CMSIS/Include/core_cm3.h **** /**
1521:Libraries/CMSIS/Include/core_cm3.h ****   \brief   Get Interrupt Enable status
1522:Libraries/CMSIS/Include/core_cm3.h ****   \details Returns a device specific interrupt enable status from the NVIC interrupt controller.
1523:Libraries/CMSIS/Include/core_cm3.h ****   \param [in]      IRQn  Device specific interrupt number.
1524:Libraries/CMSIS/Include/core_cm3.h ****   \return             0  Interrupt is not enabled.
1525:Libraries/CMSIS/Include/core_cm3.h ****   \return             1  Interrupt is enabled.
1526:Libraries/CMSIS/Include/core_cm3.h ****   \note    IRQn must not be negative.
1527:Libraries/CMSIS/Include/core_cm3.h ****  */
1528:Libraries/CMSIS/Include/core_cm3.h **** __STATIC_INLINE uint32_t __NVIC_GetEnableIRQ(IRQn_Type IRQn)
1529:Libraries/CMSIS/Include/core_cm3.h **** {
1530:Libraries/CMSIS/Include/core_cm3.h ****   if ((int32_t)(IRQn) >= 0)
1531:Libraries/CMSIS/Include/core_cm3.h ****   {
1532:Libraries/CMSIS/Include/core_cm3.h ****     return((uint32_t)(((NVIC->ISER[(((uint32_t)IRQn) >> 5UL)] & (1UL << (((uint32_t)IRQn) & 0x1FUL)
1533:Libraries/CMSIS/Include/core_cm3.h ****   }
1534:Libraries/CMSIS/Include/core_cm3.h ****   else
1535:Libraries/CMSIS/Include/core_cm3.h ****   {
1536:Libraries/CMSIS/Include/core_cm3.h ****     return(0U);
1537:Libraries/CMSIS/Include/core_cm3.h ****   }
1538:Libraries/CMSIS/Include/core_cm3.h **** }
1539:Libraries/CMSIS/Include/core_cm3.h **** 
1540:Libraries/CMSIS/Include/core_cm3.h **** 
1541:Libraries/CMSIS/Include/core_cm3.h **** /**
1542:Libraries/CMSIS/Include/core_cm3.h ****   \brief   Disable Interrupt
1543:Libraries/CMSIS/Include/core_cm3.h ****   \details Disables a device specific interrupt in the NVIC interrupt controller.
1544:Libraries/CMSIS/Include/core_cm3.h ****   \param [in]      IRQn  Device specific interrupt number.
1545:Libraries/CMSIS/Include/core_cm3.h ****   \note    IRQn must not be negative.
1546:Libraries/CMSIS/Include/core_cm3.h ****  */
1547:Libraries/CMSIS/Include/core_cm3.h **** __STATIC_INLINE void __NVIC_DisableIRQ(IRQn_Type IRQn)
 1109              		.loc 2 1547 22 view .LVU268
 1110              	.LBB29:
1548:Libraries/CMSIS/Include/core_cm3.h **** {
1549:Libraries/CMSIS/Include/core_cm3.h ****   if ((int32_t)(IRQn) >= 0)
 1111              		.loc 2 1549 3 view .LVU269
 1112              		.loc 2 1549 6 is_stmt 0 view .LVU270
 1113 004a 002B     		cmp	r3, #0
 1114 004c 0CDB     		blt	.L108
1550:Libraries/CMSIS/Include/core_cm3.h ****   {
1551:Libraries/CMSIS/Include/core_cm3.h ****     NVIC->ICER[(((uint32_t)IRQn) >> 5UL)] = (uint32_t)(1UL << (((uint32_t)IRQn) & 0x1FUL));
 1115              		.loc 2 1551 5 is_stmt 1 view .LVU271
 1116              		.loc 2 1551 81 is_stmt 0 view .LVU272
 1117 004e 03F01F01 		and	r1, r3, #31
 1118              		.loc 2 1551 34 view .LVU273
 1119 0052 5B09     		lsrs	r3, r3, #5
 1120              	.LVL135:
 1121              		.loc 2 1551 45 view .LVU274
 1122 0054 0122     		movs	r2, #1
 1123              	.LVL136:
 1124              		.loc 2 1551 45 view .LVU275
 1125 0056 8A40     		lsls	r2, r2, r1
ARM GAS  C:\Users\ADMIN\AppData\Local\Temp\ccIuv89a.s 			page 57


 1126              		.loc 2 1551 43 view .LVU276
 1127 0058 2033     		adds	r3, r3, #32
 1128 005a 0949     		ldr	r1, .L110+4
 1129 005c 41F82320 		str	r2, [r1, r3, lsl #2]
1552:Libraries/CMSIS/Include/core_cm3.h ****     __DSB();
 1130              		.loc 2 1552 5 is_stmt 1 view .LVU277
 1131              	.LBB30:
 1132              	.LBI30:
 1133              		.file 3 "Libraries/CMSIS/Include/cmsis_gcc.h"
   1:Libraries/CMSIS/Include/cmsis_gcc.h **** /**************************************************************************//**
   2:Libraries/CMSIS/Include/cmsis_gcc.h ****  * @file     cmsis_gcc.h
   3:Libraries/CMSIS/Include/cmsis_gcc.h ****  * @brief    CMSIS compiler GCC header file
   4:Libraries/CMSIS/Include/cmsis_gcc.h ****  * @version  V5.0.4
   5:Libraries/CMSIS/Include/cmsis_gcc.h ****  * @date     09. April 2018
   6:Libraries/CMSIS/Include/cmsis_gcc.h ****  ******************************************************************************/
   7:Libraries/CMSIS/Include/cmsis_gcc.h **** /*
   8:Libraries/CMSIS/Include/cmsis_gcc.h ****  * Copyright (c) 2009-2018 Arm Limited. All rights reserved.
   9:Libraries/CMSIS/Include/cmsis_gcc.h ****  *
  10:Libraries/CMSIS/Include/cmsis_gcc.h ****  * SPDX-License-Identifier: Apache-2.0
  11:Libraries/CMSIS/Include/cmsis_gcc.h ****  *
  12:Libraries/CMSIS/Include/cmsis_gcc.h ****  * Licensed under the Apache License, Version 2.0 (the License); you may
  13:Libraries/CMSIS/Include/cmsis_gcc.h ****  * not use this file except in compliance with the License.
  14:Libraries/CMSIS/Include/cmsis_gcc.h ****  * You may obtain a copy of the License at
  15:Libraries/CMSIS/Include/cmsis_gcc.h ****  *
  16:Libraries/CMSIS/Include/cmsis_gcc.h ****  * www.apache.org/licenses/LICENSE-2.0
  17:Libraries/CMSIS/Include/cmsis_gcc.h ****  *
  18:Libraries/CMSIS/Include/cmsis_gcc.h ****  * Unless required by applicable law or agreed to in writing, software
  19:Libraries/CMSIS/Include/cmsis_gcc.h ****  * distributed under the License is distributed on an AS IS BASIS, WITHOUT
  20:Libraries/CMSIS/Include/cmsis_gcc.h ****  * WARRANTIES OR CONDITIONS OF ANY KIND, either express or implied.
  21:Libraries/CMSIS/Include/cmsis_gcc.h ****  * See the License for the specific language governing permissions and
  22:Libraries/CMSIS/Include/cmsis_gcc.h ****  * limitations under the License.
  23:Libraries/CMSIS/Include/cmsis_gcc.h ****  */
  24:Libraries/CMSIS/Include/cmsis_gcc.h **** 
  25:Libraries/CMSIS/Include/cmsis_gcc.h **** #ifndef __CMSIS_GCC_H
  26:Libraries/CMSIS/Include/cmsis_gcc.h **** #define __CMSIS_GCC_H
  27:Libraries/CMSIS/Include/cmsis_gcc.h **** 
  28:Libraries/CMSIS/Include/cmsis_gcc.h **** /* ignore some GCC warnings */
  29:Libraries/CMSIS/Include/cmsis_gcc.h **** #pragma GCC diagnostic push
  30:Libraries/CMSIS/Include/cmsis_gcc.h **** #pragma GCC diagnostic ignored "-Wsign-conversion"
  31:Libraries/CMSIS/Include/cmsis_gcc.h **** #pragma GCC diagnostic ignored "-Wconversion"
  32:Libraries/CMSIS/Include/cmsis_gcc.h **** #pragma GCC diagnostic ignored "-Wunused-parameter"
  33:Libraries/CMSIS/Include/cmsis_gcc.h **** 
  34:Libraries/CMSIS/Include/cmsis_gcc.h **** /* Fallback for __has_builtin */
  35:Libraries/CMSIS/Include/cmsis_gcc.h **** #ifndef __has_builtin
  36:Libraries/CMSIS/Include/cmsis_gcc.h ****   #define __has_builtin(x) (0)
  37:Libraries/CMSIS/Include/cmsis_gcc.h **** #endif
  38:Libraries/CMSIS/Include/cmsis_gcc.h **** 
  39:Libraries/CMSIS/Include/cmsis_gcc.h **** /* CMSIS compiler specific defines */
  40:Libraries/CMSIS/Include/cmsis_gcc.h **** #ifndef   __ASM
  41:Libraries/CMSIS/Include/cmsis_gcc.h ****   #define __ASM                                  __asm
  42:Libraries/CMSIS/Include/cmsis_gcc.h **** #endif
  43:Libraries/CMSIS/Include/cmsis_gcc.h **** #ifndef   __INLINE
  44:Libraries/CMSIS/Include/cmsis_gcc.h ****   #define __INLINE                               inline
  45:Libraries/CMSIS/Include/cmsis_gcc.h **** #endif
  46:Libraries/CMSIS/Include/cmsis_gcc.h **** #ifndef   __STATIC_INLINE
  47:Libraries/CMSIS/Include/cmsis_gcc.h ****   #define __STATIC_INLINE                        static inline
  48:Libraries/CMSIS/Include/cmsis_gcc.h **** #endif
ARM GAS  C:\Users\ADMIN\AppData\Local\Temp\ccIuv89a.s 			page 58


  49:Libraries/CMSIS/Include/cmsis_gcc.h **** #ifndef   __STATIC_FORCEINLINE                 
  50:Libraries/CMSIS/Include/cmsis_gcc.h ****   #define __STATIC_FORCEINLINE                   __attribute__((always_inline)) static inline
  51:Libraries/CMSIS/Include/cmsis_gcc.h **** #endif                                           
  52:Libraries/CMSIS/Include/cmsis_gcc.h **** #ifndef   __NO_RETURN
  53:Libraries/CMSIS/Include/cmsis_gcc.h ****   #define __NO_RETURN                            __attribute__((__noreturn__))
  54:Libraries/CMSIS/Include/cmsis_gcc.h **** #endif
  55:Libraries/CMSIS/Include/cmsis_gcc.h **** #ifndef   __USED
  56:Libraries/CMSIS/Include/cmsis_gcc.h ****   #define __USED                                 __attribute__((used))
  57:Libraries/CMSIS/Include/cmsis_gcc.h **** #endif
  58:Libraries/CMSIS/Include/cmsis_gcc.h **** #ifndef   __WEAK
  59:Libraries/CMSIS/Include/cmsis_gcc.h ****   #define __WEAK                                 __attribute__((weak))
  60:Libraries/CMSIS/Include/cmsis_gcc.h **** #endif
  61:Libraries/CMSIS/Include/cmsis_gcc.h **** #ifndef   __PACKED
  62:Libraries/CMSIS/Include/cmsis_gcc.h ****   #define __PACKED                               __attribute__((packed, aligned(1)))
  63:Libraries/CMSIS/Include/cmsis_gcc.h **** #endif
  64:Libraries/CMSIS/Include/cmsis_gcc.h **** #ifndef   __PACKED_STRUCT
  65:Libraries/CMSIS/Include/cmsis_gcc.h ****   #define __PACKED_STRUCT                        struct __attribute__((packed, aligned(1)))
  66:Libraries/CMSIS/Include/cmsis_gcc.h **** #endif
  67:Libraries/CMSIS/Include/cmsis_gcc.h **** #ifndef   __PACKED_UNION
  68:Libraries/CMSIS/Include/cmsis_gcc.h ****   #define __PACKED_UNION                         union __attribute__((packed, aligned(1)))
  69:Libraries/CMSIS/Include/cmsis_gcc.h **** #endif
  70:Libraries/CMSIS/Include/cmsis_gcc.h **** #ifndef   __UNALIGNED_UINT32        /* deprecated */
  71:Libraries/CMSIS/Include/cmsis_gcc.h ****   #pragma GCC diagnostic push
  72:Libraries/CMSIS/Include/cmsis_gcc.h ****   #pragma GCC diagnostic ignored "-Wpacked"
  73:Libraries/CMSIS/Include/cmsis_gcc.h ****   #pragma GCC diagnostic ignored "-Wattributes"
  74:Libraries/CMSIS/Include/cmsis_gcc.h ****   struct __attribute__((packed)) T_UINT32 { uint32_t v; };
  75:Libraries/CMSIS/Include/cmsis_gcc.h ****   #pragma GCC diagnostic pop
  76:Libraries/CMSIS/Include/cmsis_gcc.h ****   #define __UNALIGNED_UINT32(x)                  (((struct T_UINT32 *)(x))->v)
  77:Libraries/CMSIS/Include/cmsis_gcc.h **** #endif
  78:Libraries/CMSIS/Include/cmsis_gcc.h **** #ifndef   __UNALIGNED_UINT16_WRITE
  79:Libraries/CMSIS/Include/cmsis_gcc.h ****   #pragma GCC diagnostic push
  80:Libraries/CMSIS/Include/cmsis_gcc.h ****   #pragma GCC diagnostic ignored "-Wpacked"
  81:Libraries/CMSIS/Include/cmsis_gcc.h ****   #pragma GCC diagnostic ignored "-Wattributes"
  82:Libraries/CMSIS/Include/cmsis_gcc.h ****   __PACKED_STRUCT T_UINT16_WRITE { uint16_t v; };
  83:Libraries/CMSIS/Include/cmsis_gcc.h ****   #pragma GCC diagnostic pop
  84:Libraries/CMSIS/Include/cmsis_gcc.h ****   #define __UNALIGNED_UINT16_WRITE(addr, val)    (void)((((struct T_UINT16_WRITE *)(void *)(addr))-
  85:Libraries/CMSIS/Include/cmsis_gcc.h **** #endif
  86:Libraries/CMSIS/Include/cmsis_gcc.h **** #ifndef   __UNALIGNED_UINT16_READ
  87:Libraries/CMSIS/Include/cmsis_gcc.h ****   #pragma GCC diagnostic push
  88:Libraries/CMSIS/Include/cmsis_gcc.h ****   #pragma GCC diagnostic ignored "-Wpacked"
  89:Libraries/CMSIS/Include/cmsis_gcc.h ****   #pragma GCC diagnostic ignored "-Wattributes"
  90:Libraries/CMSIS/Include/cmsis_gcc.h ****   __PACKED_STRUCT T_UINT16_READ { uint16_t v; };
  91:Libraries/CMSIS/Include/cmsis_gcc.h ****   #pragma GCC diagnostic pop
  92:Libraries/CMSIS/Include/cmsis_gcc.h ****   #define __UNALIGNED_UINT16_READ(addr)          (((const struct T_UINT16_READ *)(const void *)(add
  93:Libraries/CMSIS/Include/cmsis_gcc.h **** #endif
  94:Libraries/CMSIS/Include/cmsis_gcc.h **** #ifndef   __UNALIGNED_UINT32_WRITE
  95:Libraries/CMSIS/Include/cmsis_gcc.h ****   #pragma GCC diagnostic push
  96:Libraries/CMSIS/Include/cmsis_gcc.h ****   #pragma GCC diagnostic ignored "-Wpacked"
  97:Libraries/CMSIS/Include/cmsis_gcc.h ****   #pragma GCC diagnostic ignored "-Wattributes"
  98:Libraries/CMSIS/Include/cmsis_gcc.h ****   __PACKED_STRUCT T_UINT32_WRITE { uint32_t v; };
  99:Libraries/CMSIS/Include/cmsis_gcc.h ****   #pragma GCC diagnostic pop
 100:Libraries/CMSIS/Include/cmsis_gcc.h ****   #define __UNALIGNED_UINT32_WRITE(addr, val)    (void)((((struct T_UINT32_WRITE *)(void *)(addr))-
 101:Libraries/CMSIS/Include/cmsis_gcc.h **** #endif
 102:Libraries/CMSIS/Include/cmsis_gcc.h **** #ifndef   __UNALIGNED_UINT32_READ
 103:Libraries/CMSIS/Include/cmsis_gcc.h ****   #pragma GCC diagnostic push
 104:Libraries/CMSIS/Include/cmsis_gcc.h ****   #pragma GCC diagnostic ignored "-Wpacked"
 105:Libraries/CMSIS/Include/cmsis_gcc.h ****   #pragma GCC diagnostic ignored "-Wattributes"
ARM GAS  C:\Users\ADMIN\AppData\Local\Temp\ccIuv89a.s 			page 59


 106:Libraries/CMSIS/Include/cmsis_gcc.h ****   __PACKED_STRUCT T_UINT32_READ { uint32_t v; };
 107:Libraries/CMSIS/Include/cmsis_gcc.h ****   #pragma GCC diagnostic pop
 108:Libraries/CMSIS/Include/cmsis_gcc.h ****   #define __UNALIGNED_UINT32_READ(addr)          (((const struct T_UINT32_READ *)(const void *)(add
 109:Libraries/CMSIS/Include/cmsis_gcc.h **** #endif
 110:Libraries/CMSIS/Include/cmsis_gcc.h **** #ifndef   __ALIGNED
 111:Libraries/CMSIS/Include/cmsis_gcc.h ****   #define __ALIGNED(x)                           __attribute__((aligned(x)))
 112:Libraries/CMSIS/Include/cmsis_gcc.h **** #endif
 113:Libraries/CMSIS/Include/cmsis_gcc.h **** #ifndef   __RESTRICT
 114:Libraries/CMSIS/Include/cmsis_gcc.h ****   #define __RESTRICT                             __restrict
 115:Libraries/CMSIS/Include/cmsis_gcc.h **** #endif
 116:Libraries/CMSIS/Include/cmsis_gcc.h **** 
 117:Libraries/CMSIS/Include/cmsis_gcc.h **** 
 118:Libraries/CMSIS/Include/cmsis_gcc.h **** /* ###########################  Core Function Access  ########################### */
 119:Libraries/CMSIS/Include/cmsis_gcc.h **** /** \ingroup  CMSIS_Core_FunctionInterface
 120:Libraries/CMSIS/Include/cmsis_gcc.h ****     \defgroup CMSIS_Core_RegAccFunctions CMSIS Core Register Access Functions
 121:Libraries/CMSIS/Include/cmsis_gcc.h ****   @{
 122:Libraries/CMSIS/Include/cmsis_gcc.h ****  */
 123:Libraries/CMSIS/Include/cmsis_gcc.h **** 
 124:Libraries/CMSIS/Include/cmsis_gcc.h **** /**
 125:Libraries/CMSIS/Include/cmsis_gcc.h ****   \brief   Enable IRQ Interrupts
 126:Libraries/CMSIS/Include/cmsis_gcc.h ****   \details Enables IRQ interrupts by clearing the I-bit in the CPSR.
 127:Libraries/CMSIS/Include/cmsis_gcc.h ****            Can only be executed in Privileged modes.
 128:Libraries/CMSIS/Include/cmsis_gcc.h ****  */
 129:Libraries/CMSIS/Include/cmsis_gcc.h **** __STATIC_FORCEINLINE void __enable_irq(void)
 130:Libraries/CMSIS/Include/cmsis_gcc.h **** {
 131:Libraries/CMSIS/Include/cmsis_gcc.h ****   __ASM volatile ("cpsie i" : : : "memory");
 132:Libraries/CMSIS/Include/cmsis_gcc.h **** }
 133:Libraries/CMSIS/Include/cmsis_gcc.h **** 
 134:Libraries/CMSIS/Include/cmsis_gcc.h **** 
 135:Libraries/CMSIS/Include/cmsis_gcc.h **** /**
 136:Libraries/CMSIS/Include/cmsis_gcc.h ****   \brief   Disable IRQ Interrupts
 137:Libraries/CMSIS/Include/cmsis_gcc.h ****   \details Disables IRQ interrupts by setting the I-bit in the CPSR.
 138:Libraries/CMSIS/Include/cmsis_gcc.h ****            Can only be executed in Privileged modes.
 139:Libraries/CMSIS/Include/cmsis_gcc.h ****  */
 140:Libraries/CMSIS/Include/cmsis_gcc.h **** __STATIC_FORCEINLINE void __disable_irq(void)
 141:Libraries/CMSIS/Include/cmsis_gcc.h **** {
 142:Libraries/CMSIS/Include/cmsis_gcc.h ****   __ASM volatile ("cpsid i" : : : "memory");
 143:Libraries/CMSIS/Include/cmsis_gcc.h **** }
 144:Libraries/CMSIS/Include/cmsis_gcc.h **** 
 145:Libraries/CMSIS/Include/cmsis_gcc.h **** 
 146:Libraries/CMSIS/Include/cmsis_gcc.h **** /**
 147:Libraries/CMSIS/Include/cmsis_gcc.h ****   \brief   Get Control Register
 148:Libraries/CMSIS/Include/cmsis_gcc.h ****   \details Returns the content of the Control Register.
 149:Libraries/CMSIS/Include/cmsis_gcc.h ****   \return               Control Register value
 150:Libraries/CMSIS/Include/cmsis_gcc.h ****  */
 151:Libraries/CMSIS/Include/cmsis_gcc.h **** __STATIC_FORCEINLINE uint32_t __get_CONTROL(void)
 152:Libraries/CMSIS/Include/cmsis_gcc.h **** {
 153:Libraries/CMSIS/Include/cmsis_gcc.h ****   uint32_t result;
 154:Libraries/CMSIS/Include/cmsis_gcc.h **** 
 155:Libraries/CMSIS/Include/cmsis_gcc.h ****   __ASM volatile ("MRS %0, control" : "=r" (result) );
 156:Libraries/CMSIS/Include/cmsis_gcc.h ****   return(result);
 157:Libraries/CMSIS/Include/cmsis_gcc.h **** }
 158:Libraries/CMSIS/Include/cmsis_gcc.h **** 
 159:Libraries/CMSIS/Include/cmsis_gcc.h **** 
 160:Libraries/CMSIS/Include/cmsis_gcc.h **** #if (defined (__ARM_FEATURE_CMSE ) && (__ARM_FEATURE_CMSE == 3))
 161:Libraries/CMSIS/Include/cmsis_gcc.h **** /**
 162:Libraries/CMSIS/Include/cmsis_gcc.h ****   \brief   Get Control Register (non-secure)
ARM GAS  C:\Users\ADMIN\AppData\Local\Temp\ccIuv89a.s 			page 60


 163:Libraries/CMSIS/Include/cmsis_gcc.h ****   \details Returns the content of the non-secure Control Register when in secure mode.
 164:Libraries/CMSIS/Include/cmsis_gcc.h ****   \return               non-secure Control Register value
 165:Libraries/CMSIS/Include/cmsis_gcc.h ****  */
 166:Libraries/CMSIS/Include/cmsis_gcc.h **** __STATIC_FORCEINLINE uint32_t __TZ_get_CONTROL_NS(void)
 167:Libraries/CMSIS/Include/cmsis_gcc.h **** {
 168:Libraries/CMSIS/Include/cmsis_gcc.h ****   uint32_t result;
 169:Libraries/CMSIS/Include/cmsis_gcc.h **** 
 170:Libraries/CMSIS/Include/cmsis_gcc.h ****   __ASM volatile ("MRS %0, control_ns" : "=r" (result) );
 171:Libraries/CMSIS/Include/cmsis_gcc.h ****   return(result);
 172:Libraries/CMSIS/Include/cmsis_gcc.h **** }
 173:Libraries/CMSIS/Include/cmsis_gcc.h **** #endif
 174:Libraries/CMSIS/Include/cmsis_gcc.h **** 
 175:Libraries/CMSIS/Include/cmsis_gcc.h **** 
 176:Libraries/CMSIS/Include/cmsis_gcc.h **** /**
 177:Libraries/CMSIS/Include/cmsis_gcc.h ****   \brief   Set Control Register
 178:Libraries/CMSIS/Include/cmsis_gcc.h ****   \details Writes the given value to the Control Register.
 179:Libraries/CMSIS/Include/cmsis_gcc.h ****   \param [in]    control  Control Register value to set
 180:Libraries/CMSIS/Include/cmsis_gcc.h ****  */
 181:Libraries/CMSIS/Include/cmsis_gcc.h **** __STATIC_FORCEINLINE void __set_CONTROL(uint32_t control)
 182:Libraries/CMSIS/Include/cmsis_gcc.h **** {
 183:Libraries/CMSIS/Include/cmsis_gcc.h ****   __ASM volatile ("MSR control, %0" : : "r" (control) : "memory");
 184:Libraries/CMSIS/Include/cmsis_gcc.h **** }
 185:Libraries/CMSIS/Include/cmsis_gcc.h **** 
 186:Libraries/CMSIS/Include/cmsis_gcc.h **** 
 187:Libraries/CMSIS/Include/cmsis_gcc.h **** #if (defined (__ARM_FEATURE_CMSE ) && (__ARM_FEATURE_CMSE == 3))
 188:Libraries/CMSIS/Include/cmsis_gcc.h **** /**
 189:Libraries/CMSIS/Include/cmsis_gcc.h ****   \brief   Set Control Register (non-secure)
 190:Libraries/CMSIS/Include/cmsis_gcc.h ****   \details Writes the given value to the non-secure Control Register when in secure state.
 191:Libraries/CMSIS/Include/cmsis_gcc.h ****   \param [in]    control  Control Register value to set
 192:Libraries/CMSIS/Include/cmsis_gcc.h ****  */
 193:Libraries/CMSIS/Include/cmsis_gcc.h **** __STATIC_FORCEINLINE void __TZ_set_CONTROL_NS(uint32_t control)
 194:Libraries/CMSIS/Include/cmsis_gcc.h **** {
 195:Libraries/CMSIS/Include/cmsis_gcc.h ****   __ASM volatile ("MSR control_ns, %0" : : "r" (control) : "memory");
 196:Libraries/CMSIS/Include/cmsis_gcc.h **** }
 197:Libraries/CMSIS/Include/cmsis_gcc.h **** #endif
 198:Libraries/CMSIS/Include/cmsis_gcc.h **** 
 199:Libraries/CMSIS/Include/cmsis_gcc.h **** 
 200:Libraries/CMSIS/Include/cmsis_gcc.h **** /**
 201:Libraries/CMSIS/Include/cmsis_gcc.h ****   \brief   Get IPSR Register
 202:Libraries/CMSIS/Include/cmsis_gcc.h ****   \details Returns the content of the IPSR Register.
 203:Libraries/CMSIS/Include/cmsis_gcc.h ****   \return               IPSR Register value
 204:Libraries/CMSIS/Include/cmsis_gcc.h ****  */
 205:Libraries/CMSIS/Include/cmsis_gcc.h **** __STATIC_FORCEINLINE uint32_t __get_IPSR(void)
 206:Libraries/CMSIS/Include/cmsis_gcc.h **** {
 207:Libraries/CMSIS/Include/cmsis_gcc.h ****   uint32_t result;
 208:Libraries/CMSIS/Include/cmsis_gcc.h **** 
 209:Libraries/CMSIS/Include/cmsis_gcc.h ****   __ASM volatile ("MRS %0, ipsr" : "=r" (result) );
 210:Libraries/CMSIS/Include/cmsis_gcc.h ****   return(result);
 211:Libraries/CMSIS/Include/cmsis_gcc.h **** }
 212:Libraries/CMSIS/Include/cmsis_gcc.h **** 
 213:Libraries/CMSIS/Include/cmsis_gcc.h **** 
 214:Libraries/CMSIS/Include/cmsis_gcc.h **** /**
 215:Libraries/CMSIS/Include/cmsis_gcc.h ****   \brief   Get APSR Register
 216:Libraries/CMSIS/Include/cmsis_gcc.h ****   \details Returns the content of the APSR Register.
 217:Libraries/CMSIS/Include/cmsis_gcc.h ****   \return               APSR Register value
 218:Libraries/CMSIS/Include/cmsis_gcc.h ****  */
 219:Libraries/CMSIS/Include/cmsis_gcc.h **** __STATIC_FORCEINLINE uint32_t __get_APSR(void)
ARM GAS  C:\Users\ADMIN\AppData\Local\Temp\ccIuv89a.s 			page 61


 220:Libraries/CMSIS/Include/cmsis_gcc.h **** {
 221:Libraries/CMSIS/Include/cmsis_gcc.h ****   uint32_t result;
 222:Libraries/CMSIS/Include/cmsis_gcc.h **** 
 223:Libraries/CMSIS/Include/cmsis_gcc.h ****   __ASM volatile ("MRS %0, apsr" : "=r" (result) );
